(dp0
S'stones'
p1
c__builtin__
set
p2
((lp3
tp4
Rp5
sS'shoes'
p6
g2
((lp7
(ilocalization
box
p8
(dp9
S'y1'
p10
F413.23
sS'x2'
p11
F1015.416
sS'x1'
p12
F944.504
sS'y2'
p13
F464.241
sS'score'
p14
F0.34576359115930777
sba(ilocalization
box
p15
(dp16
g10
F15.913
sg11
F1656.315
sg12
F1622.388
sg13
F74.261
sg14
F0.3624024298324904
sba(ilocalization
box
p17
(dp18
g10
F1.0
sg11
F2568.859
sg12
F12.806
sg13
F1944.0
sg14
F0.34507275504338375
sba(ilocalization
box
p19
(dp20
g10
F353.011
sg11
F1381.803
sg12
F1114.251
sg13
F748.827
sg14
F0.3520436871019846
sba(ilocalization
box
p21
(dp22
g10
F273.101
sg11
F1248.655
sg12
F1130.497
sg13
F354.836
sg14
F0.3520436871019846
sba(ilocalization
box
p23
(dp24
g10
F1062.224
sg11
F1915.668
sg12
F1707.422
sg13
F1385.222
sg14
F0.3595147764083289
sba(ilocalization
box
p25
(dp26
g10
F803.39
sg11
F1658.275
sg12
F1600.195
sg13
F890.889
sg14
F0.3513403033459978
sba(ilocalization
box
p27
(dp28
g10
F1029.128
sg11
F1792.772
sg12
F564.918
sg13
F1944.0
sg14
F0.37908303810339883
sba(ilocalization
box
p29
(dp30
g10
F859.473
sg11
F2073.316
sg12
F2015.84
sg13
F945.686
sg14
F0.353101403945268
sba(ilocalization
box
p31
(dp32
g10
F703.539
sg11
F1199.756
sg12
F1110.595
sg13
F821.287
sg14
F0.35063832495169295
sba(ilocalization
box
p33
(dp34
g10
F704.418
sg11
F1622.009
sg12
F1451.38
sg13
F933.005
sg14
F0.35593754461343535
sba(ilocalization
box
p35
(dp36
g10
F668.281
sg11
F2546.3
sg12
F2239.49
sg13
F1128.393
sg14
F0.3660446348040154
sba(ilocalization
box
p37
(dp38
g10
F1477.746
sg11
F2313.086
sg12
F2263.026
sg13
F1560.919
sg14
F0.3471494153245103
sba(ilocalization
box
p39
(dp40
g10
F1109.096
sg11
F2020.191
sg12
F1815.788
sg13
F1376.057
sg14
F0.3527484790331891
sba(ilocalization
box
p41
(dp42
g10
F1218.87265625
sg11
F473.63265625
sg12
F40.20534375
sg13
F1559.70625
sg14
F2.3030860782692306
sba(ilocalization
box
p43
(dp44
g10
F14.998
sg11
F1833.888
sg12
F1798.667
sg13
F79.742
sg14
F0.3584378482789939
sbatp45
Rp46
sS'fireplace2'
p47
g2
((lp48
(ilocalization
box
p49
(dp50
g10
F1650.302
sg11
F565.588
sg12
F460.455
sg13
F1747.74
sg14
F0.3513403033459978
sba(ilocalization
box
p51
(dp52
g10
F1309.314
sg11
F1239.022
sg12
F854.846
sg13
F1740.587
sg14
F0.3495879862726104
sba(ilocalization
box
p53
(dp54
g10
F738.483
sg11
F605.938
sg12
F55.543
sg13
F1373.842
sg14
F0.3492385730220808
sba(ilocalization
box
p55
(dp56
g10
F1.0
sg11
F1315.464
sg12
F931.332
sg13
F385.982
sg14
F0.34680243942604977
sba(ilocalization
box
p57
(dp58
g10
F400.305
sg11
F2422.012
sg12
F2285.244
sg13
F609.019
sg14
F0.34438329921894
sba(ilocalization
box
p59
(dp60
g10
F764.89
sg11
F2557.497
sg12
F2482.656
sg13
F904.548
sg14
F0.34403908805398786
sba(ilocalization
box
p61
(dp62
g10
F1819.036
sg11
F2109.127
sg12
F1987.754
sg13
F1944.0
sg14
F0.34403908805398786
sba(ilocalization
box
p63
(dp64
g10
F174.87
sg11
F2442.802
sg12
F2359.813
sg13
F330.971
sg14
F0.34300851741870664
sba(ilocalization
box
p65
(dp66
g10
F1561.561
sg11
F1406.524
sg12
F1309.091
sg13
F1685.034
sg14
F0.34300851741870664
sba(ilocalization
box
p67
(dp68
g10
F228.079
sg11
F2053.076
sg12
F1990.484
sg13
F338.272
sg14
F0.34232318594378797
sba(ilocalization
box
p69
(dp70
g10
F158.169
sg11
F2222.173
sg12
F2061.686
sg13
F404.98
sg14
F0.34163922376206945
sba(ilocalization
box
p71
(dp72
g10
F1403.313
sg11
F2495.232
sg12
F2382.074
sg13
F1563.141
sg14
F0.33993529102496034
sba(ilocalization
box
p73
(dp74
g10
F215.255
sg11
F1981.338
sg12
F1849.433
sg13
F404.841
sg14
F0.33993529102496034
sba(ilocalization
box
p75
(dp76
g10
F1376.129
sg11
F2108.413
sg12
F2003.443
sg13
F1504.922
sg14
F0.33993529102496034
sba(ilocalization
box
p77
(dp78
g10
F1364.013
sg11
F1323.127
sg12
F1182.016
sg13
F1516.156
sg14
F0.33993529102496034
sba(ilocalization
box
p79
(dp80
g10
F185.888
sg11
F2322.697
sg12
F2159.147
sg13
F419.334
sg14
F0.3385782657208353
sba(ilocalization
box
p81
(dp82
g10
F157.339
sg11
F1916.622
sg12
F1773.648
sg13
F367.144
sg14
F0.3385782657208353
sba(ilocalization
box
p83
(dp84
g10
F805.4359999999999
sg11
F431.8615
sg12
F89.6825
sg13
F820.6465000000001
sg14
F0.8763488585805042
sba(ilocalization
box
p85
(dp86
g10
F426.772
sg11
F892.79
sg12
F358.866
sg13
F1090.796
sg14
F0.3783256296880768
sba(ilocalization
box
p87
(dp88
g10
F659.744
sg11
F2060.164
sg12
F1986.264
sg13
F786.282
sg14
F0.3382398566878317
sba(ilocalization
box
p89
(dp90
g10
F900.865
sg11
F2033.48
sg12
F1582.97
sg13
F1475.753
sg14
F0.37343922693666093
sba(ilocalization
box
p91
(dp92
g10
F435.158
sg11
F2034.725
sg12
F1960.148
sg13
F554.553
sg14
F0.3382398566878317
sba(ilocalization
box
p93
(dp94
g10
F841.322
sg11
F1870.844
sg12
F1799.57
sg13
F945.132
sg14
F0.36204020854348745
sba(ilocalization
box
p95
(dp96
g10
F1227.191
sg11
F1876.247
sg12
F1388.255
sg13
F1773.748
sg14
F0.3587964654059516
sba(ilocalization
box
p97
(dp98
g10
F344.126
sg11
F1593.854
sg12
F1125.749
sg13
F962.752
sg14
F0.3570069605691474
sba(ilocalization
box
p99
(dp100
g10
F658.653
sg11
F1953.618
sg12
F1889.258
sg13
F763.319
sg14
F0.3382398566878317
sba(ilocalization
box
p101
(dp102
g10
F257.587
sg11
F1530.439
sg12
F636.546
sg13
F1254.167
sg14
F0.3552263809249515
sba(ilocalization
box
p103
(dp104
g10
F722.512
sg11
F1994.197
sg12
F1357.135
sg13
F1459.627
sg14
F0.35451663814246503
sba(ilocalization
box
p105
(dp106
g10
F1386.3
sg11
F1127.136
sg12
F1032.716
sg13
F1489.993
sg14
F0.35451663814246503
sba(ilocalization
box
p107
(dp108
g10
F1.0
sg11
F1563.44
sg12
F1468.696
sg13
F80.232
sg14
F0.35380831342700375
sba(ilocalization
box
p109
(dp110
g10
F1743.412
sg11
F1910.968
sg12
F1744.309
sg13
F1944.0
sg14
F0.35239590686961875
sbatp111
Rp112
sS'stool'
p113
g2
((lp114
(ilocalization
box
p115
(dp116
g10
F1343.064
sg11
F699.89
sg12
F464.548
sg13
F1584.291
sg14
F0.3289005018317685
sba(ilocalization
box
p117
(dp118
g10
F999.755
sg11
F2592.0
sg12
F1011.894
sg13
F1944.0
sg14
F0.353101403945268
sba(ilocalization
box
p119
(dp120
g10
F1571.317
sg11
F217.539
sg12
F144.402
sg13
F1676.117
sg14
F0.3285717657253846
sba(ilocalization
box
p121
(dp122
g10
F1650.797
sg11
F976.544
sg12
F567.071
sg13
F1944.0
sg14
F0.34749673837241524
sba(ilocalization
box
p123
(dp124
g10
F1569.133
sg11
F985.414
sg12
F876.507
sg13
F1710.051
sg14
F0.32824335819079375
sba(ilocalization
box
p125
(dp126
g10
F431.085
sg11
F1748.061
sg12
F1638.135
sg13
F513.657
sg14
F0.32627979462303947
sba(ilocalization
box
p127
(dp128
g10
F1527.799
sg11
F688.864
sg12
F567.003
sg13
F1692.482
sg14
F0.3454180003923312
sba(ilocalization
box
p129
(dp130
g10
F551.017
sg11
F1144.523
sg12
F355.385
sg13
F1248.087
sg14
F0.32595367791394736
sba(ilocalization
box
p131
(dp132
g10
F1153.103
sg11
F1053.657
sg12
F8.221
sg13
F1944.0
sg14
F0.32562788715856034
sba(ilocalization
box
p133
(dp134
g10
F773.653125
sg11
F2385.6530000000002
sg12
F2273.12725
sg13
F884.903
sg14
F1.5133653785157863
sba(ilocalization
box
p135
(dp136
g10
F1180.485
sg11
F757.722
sg12
F671.953
sg13
F1293.468
sg14
F0.34507275504338375
sba(ilocalization
box
p137
(dp138
g10
F680.256
sg11
F243.476
sg12
F186.639
sg13
F755.007
sg14
F0.32465246735834974
sba(ilocalization
box
p139
(dp140
g10
F1196.238
sg11
F873.103
sg12
F823.343
sg13
F1269.436
sg14
F0.34369522092815236
sba(ilocalization
box
p141
(dp142
g10
F301.628
sg11
F147.458
sg12
F81.323
sg13
F392.226
sg14
F0.3227103846286335
sba(ilocalization
box
p143
(dp144
g10
F273.354
sg11
F1309.304
sg12
F1168.431
sg13
F539.901
sg14
F0.3426656803483929
sba(ilocalization
box
p145
(dp146
g10
F179.01
sg11
F68.753
sg12
F3.844
sg13
F243.751
sg14
F0.32206560885008
sba(ilocalization
box
p147
(dp148
g10
F588.836
sg11
F2356.05
sg12
F1756.573
sg13
F1079.346
sg14
F0.3419810338623976
sba(ilocalization
box
p149
(dp150
g10
F671.477
sg11
F1658.675
sg12
F1431.786
sg13
F892.374
sg14
F0.32206560885008
sba(ilocalization
box
p151
(dp152
g10
F202.018
sg11
F1850.089
sg12
F1780.027
sg13
F258.077
sg14
F0.3419810338623976
sba(ilocalization
box
p153
(dp154
g10
F246.178
sg11
F1469.198
sg12
F1377.465
sg13
F316.94
sg14
F0.3207799195076166
sba(ilocalization
box
p155
(dp156
g10
F806.752
sg11
F298.075
sg12
F241.299
sg13
F879.832
sg14
F0.3412977553009937
sba(ilocalization
box
p157
(dp158
g10
F466.962
sg11
F2497.607
sg12
F1510.124
sg13
F1368.274
sg14
F0.3207799195076166
sba(ilocalization
box
p159
(dp160
g10
F1.0
sg11
F2592.0
sg12
F2448.929
sg13
F74.558
sg14
F0.3412977553009937
sba(ilocalization
box
p161
(dp162
g10
F933.402
sg11
F139.874
sg12
F65.457
sg13
F1036.932
sg14
F0.31758810597858733
sba(ilocalization
box
p163
(dp164
g10
F21.579
sg11
F2433.264
sg12
F1804.569
sg13
F1136.662
sg14
F0.3385782657208353
sba(ilocalization
box
p165
(dp166
g10
F461.319
sg11
F149.953
sg12
F108.337
sg13
F525.617
sg14
F0.31727067661374364
sba(ilocalization
box
p167
(dp168
g10
F1038.869
sg11
F641.558
sg12
F423.859
sg13
F1254.212
sg14
F0.3385782657208353
sba(ilocalization
box
p169
(dp170
g10
F327.589
sg11
F1442.519
sg12
F1181.371
sg13
F542.147
sg14
F0.31727067661374364
sba(ilocalization
box
p171
(dp172
g10
F1518.029
sg11
F448.862
sg12
F401.02
sg13
F1614.691
sg14
F0.3382398566878317
sba(ilocalization
box
p173
(dp174
g10
F1.0
sg11
F846.063
sg12
F576.034
sg13
F237.424
sg14
F0.33790178589471304
sba(ilocalization
box
p175
(dp176
g10
F1494.644
sg11
F713.558
sg12
F656.364
sg13
F1591.536
sg14
F0.33722665767618487
sba(ilocalization
box
p177
(dp178
g10
F1506.936
sg11
F154.026
sg12
F77.765
sg13
F1640.22
sg14
F0.33621649370673334
sba(ilocalization
box
p179
(dp180
g10
F288.289
sg11
F1477.269
sg12
F1377.007
sg13
F370.649
sg14
F0.3358804452652514
sba(ilocalization
box
p181
(dp182
g10
F976.507
sg11
F553.205
sg12
F478.84
sg13
F1061.28
sg14
F0.3348743138811302
sba(ilocalization
box
p183
(dp184
g10
F837.127
sg11
F1033.591
sg12
F459.092
sg13
F1321.958
sg14
F0.3345396069486076
sba(ilocalization
box
p185
(dp186
g10
F1038.349
sg11
F1896.337
sg12
F1374.124
sg13
F1706.091
sg14
F0.46954083904279925
sba(ilocalization
box
p187
(dp188
g10
F828.27
sg11
F65.84
sg12
F11.129
sg13
F909.109
sg14
F0.3338711963680944
sba(ilocalization
box
p189
(dp190
g10
F1423.718
sg11
F688.285
sg12
F624.63
sg13
F1525.014
sg14
F0.3879029886011109
sba(ilocalization
box
p191
(dp192
g10
F364.124
sg11
F1531.511
sg12
F1439.965
sg13
F428.99
sg14
F0.33320412127281185
sba(ilocalization
box
p193
(dp194
g10
F1741.311
sg11
F1828.615
sg12
F1744.976
sg13
F1847.808
sg14
F0.36787944117144233
sba(ilocalization
box
p195
(dp196
g10
F698.057
sg11
F1012.289
sg12
F948.484
sg13
F763.035
sg14
F0.3305491224578677
sba(ilocalization
box
p197
(dp198
g10
F610.161
sg11
F1324.911
sg12
F1230.331
sg13
F701.403
sg14
F0.36567877313053654
sba(ilocalization
box
p199
(dp200
g10
F523.882
sg11
F1250.205
sg12
F1170.597
sg13
F592.25
sg14
F0.3305491224578677
sba(ilocalization
box
p201
(dp202
g10
F1256.883
sg11
F777.735
sg12
F705.543
sg13
F1356.238
sg14
F0.36276501352395324
sba(ilocalization
box
p203
(dp204
g10
F586.273
sg11
F1356.033
sg12
F1221.078
sg13
F838.664
sg14
F0.3302187385548933
sba(ilocalization
box
p205
(dp206
g10
F548.048
sg11
F1376.322
sg12
F1192.282
sg13
F706.053
sg14
F0.36095571547083566
sba(ilocalization
box
p207
(dp208
g10
F1476.522
sg11
F314.952
sg12
F246.4
sg13
F1579.671
sg14
F0.3302187385548933
sbatp209
Rp210
sS'stove'
p211
g2
((lp212
tp213
Rp214
sS'chandelier'
p215
g2
((lp216
tp217
Rp218
sS'oven'
p219
g2
((lp220
tp221
Rp222
sS'seats'
p223
g2
((lp224
(ilocalization
box
p225
(dp226
g10
F1316.843
sg11
F1796.345
sg12
F1716.841
sg13
F1469.843
sg14
F0.40011630965630496
sba(ilocalization
box
p227
(dp228
g10
F619.901
sg11
F2316.023
sg12
F2252.791
sg13
F704.074
sg14
F0.40011630965630496
sba(ilocalization
box
p229
(dp230
g10
F694.5
sg11
F2300.294
sg12
F2202.343
sg13
F805.692
sg14
F0.4274149319487267
sba(ilocalization
box
p231
(dp232
g10
F1829.923
sg11
F1293.077
sg12
F1299.4
sg13
F1944.0
sg14
F0.39140987280600653
sba(ilocalization
box
p233
(dp234
g10
F1266.882
sg11
F98.554
sg12
F111.429
sg13
F1363.028
sg14
F0.4231620823177488
sba(ilocalization
box
p235
(dp236
g10
F1096.655
sg11
F1795.472
sg12
F1768.225
sg13
F1187.725
sg14
F0.4156133076240884
sba(ilocalization
box
p237
(dp238
g10
F1635.156
sg11
F510.708
sg12
F373.255
sg13
F1696.189
sg14
F0.4156133076240884
sba(ilocalization
box
p239
(dp240
g10
F1395.502
sg11
F2525.088
sg12
F2469.208
sg13
F1524.391
sg14
F0.3953436074260998
sba(ilocalization
box
p241
(dp242
g10
F567.893171875
sg11
F1337.9326210937502
sg12
F1260.13573046875
sg13
F672.1898984375
sg14
F3.608517266348426
sbatp243
Rp244
sS'dish'
p245
g2
((lp246
(ilocalization
box
p247
(dp248
g10
F612.216
sg11
F1335.66
sg12
F1203.632
sg13
F672.176
sg14
F0.36131685172433853
sba(ilocalization
box
p249
(dp250
g10
F921.305
sg11
F117.753
sg12
F28.301
sg13
F1034.549
sg14
F0.45022852130278923
sbatp251
Rp252
sS'chair'
p253
g2
((lp254
tp255
Rp256
sS'ground'
p257
g2
((lp258
(ilocalization
box
p259
(dp260
g10
F1775.837
sg11
F2578.512
sg12
F2367.182
sg13
F1916.314
sg14
F0.39613508585555535
sba(ilocalization
box
p261
(dp262
g10
F1096.558
sg11
F1629.09
sg12
F1389.611
sg13
F1218.911
sg14
F0.388291085605873
sba(ilocalization
box
p263
(dp264
g10
F1911.394
sg11
F2592.0
sg12
F2369.919
sg13
F1942.091
sg14
F0.39494846142460327
sba(ilocalization
box
p265
(dp266
g10
F630.206
sg11
F2453.528
sg12
F2287.494
sg13
F729.535
sg14
F0.45520837401361586
sba(ilocalization
box
p267
(dp268
g10
F822.953
sg11
F1620.414
sg12
F1036.815
sg13
F1127.411
sg14
F0.3730659743671134
sba(ilocalization
box
p269
(dp270
g10
F1491.4923125
sg11
F207.04025000000001
sg12
F27.390125000000005
sg13
F1598.962375
sg14
F1.9567906897116067
sba(ilocalization
box
p271
(dp272
g10
F849.779
sg11
F627.905
sg12
F510.969
sg13
F921.656
sg14
F0.36567877313053654
sba(ilocalization
box
p273
(dp274
g10
F652.93
sg11
F2575.273
sg12
F2362.412
sg13
F755.13
sg14
F0.4274149319487267
sba(ilocalization
box
p275
(dp276
g10
F621.902
sg11
F1641.956
sg12
F1216.732
sg13
F803.098
sg14
F0.37418685276715613
sba(ilocalization
box
p277
(dp278
g10
F237.547
sg11
F759.862
sg12
F627.589
sg13
F300.343
sg14
F0.36494814645449375
sba(ilocalization
box
p279
(dp280
g10
F1501.331
sg11
F1508.482
sg12
F1164.264
sg13
F1668.556
sg14
F0.3851971491677552
sba(ilocalization
box
p281
(dp282
g10
F751.815
sg11
F1009.969
sg12
F815.953
sg13
F854.221
sg14
F0.36494814645449375
sba(ilocalization
box
p283
(dp284
g10
F33.834
sg11
F2535.672
sg12
F2340.432
sg13
F273.47
sg14
F0.40697643275294815
sba(ilocalization
box
p285
(dp286
g10
F726.354
sg11
F123.229
sg12
F2.85
sg13
F761.329
sg14
F0.38674102345450123
sba(ilocalization
box
p287
(dp288
g10
F36.999
sg11
F839.221
sg12
F755.039
sg13
F132.999
sg14
F0.36385494264075363
sba(ilocalization
box
p289
(dp290
g10
F1169.858
sg11
F2580.965
sg12
F2448.047
sg13
F1277.259
sg14
F0.39613508585555535
sbatp291
Rp292
sS'monitor'
p293
g2
((lp294
tp295
Rp296
sS'sky'
p297
g2
((lp298
(ilocalization
box
p299
(dp300
g10
F26.5945
sg11
F2539.4285
sg12
F2198.7315
sg13
F23.323999999999998
sg14
F0.8158372830032534
sba(ilocalization
box
p301
(dp302
g10
F2.76
sg11
F2592.0
sg12
F1851.288
sg13
F105.342
sg14
F0.8798533791446438
sba(ilocalization
box
p303
(dp304
g10
F1.183
sg11
F969.196
sg12
F443.992
sg13
F177.962
sg14
F0.3957391487712367
sba(ilocalization
box
p305
(dp306
g10
F1.0
sg11
F611.996
sg12
F253.017
sg13
F120.152
sg14
F0.3492385730220808
sba(ilocalization
box
p307
(dp308
g10
F2.531
sg11
F2592.0
sg12
F1524.961
sg13
F286.201
sg14
F0.3355447327042427
sba(ilocalization
box
p309
(dp310
g10
F1558.583
sg11
F397.501
sg12
F49.146
sg13
F1875.7
sg14
F0.44263932736135114
sba(ilocalization
box
p311
(dp312
g10
F601.099
sg11
F2592.0
sg12
F2226.765
sg13
F851.799
sg14
F0.4013184609105419
sbatp313
Rp314
sS'bench'
p315
g2
((lp316
(ilocalization
box
p317
(dp318
g10
F1748.772
sg11
F128.619
sg12
F1.0
sg13
F1791.724
sg14
F0.38906844487723635
sba(ilocalization
box
p319
(dp320
g10
F979.297
sg11
F2592.0
sg12
F1625.219
sg13
F1891.285
sg14
F0.3723205880531552
sba(ilocalization
box
p321
(dp322
g10
F118.965
sg11
F207.779
sg12
F145.197
sg13
F178.976
sg14
F0.38906844487723635
sba(ilocalization
box
p323
(dp324
g10
F280.266
sg11
F1291.563
sg12
F1193.258
sg13
F324.897
sg14
F0.37531109885139957
sba(ilocalization
box
p325
(dp326
g10
F1114.225
sg11
F1778.008
sg12
F1239.979
sg13
F1624.304
sg14
F0.3730659743671134
sba(ilocalization
box
p327
(dp328
g10
F842.561331451416
sg11
F332.37326014709475
sg12
F106.46802848815918
sg13
F957.0115395965576
sg14
F6.512330716421481
sba(ilocalization
box
p329
(dp330
g10
F54.393
sg11
F1696.328
sg12
F1621.474
sg13
F138.691
sg14
F0.37120530005745517
sba(ilocalization
box
p331
(dp332
g10
F699.047
sg11
F1677.299
sg12
F1475.203
sg13
F888.01
sg14
F0.37643872273806595
sba(ilocalization
box
p333
(dp334
g10
F512.072
sg11
F1187.209
sg12
F1137.482
sg13
F569.955
sg14
F0.40252422403363597
sba(ilocalization
box
p335
(dp336
g10
F1075.189
sg11
F1980.99
sg12
F1724.537
sg13
F1314.585
sg14
F0.38635447573711773
sba(ilocalization
box
p337
(dp338
g10
F620.928
sg11
F1373.911
sg12
F1218.824
sg13
F697.336
sg14
F0.3738128529454665
sba(ilocalization
box
p339
(dp340
g10
F444.211
sg11
F1807.806
sg12
F1750.725
sg13
F509.292
sg14
F0.3730659743671134
sba(ilocalization
box
p341
(dp342
g10
F1482.635
sg11
F1632.86
sg12
F1414.119
sg13
F1580.363
sg14
F0.3855825389797131
sba(ilocalization
box
p343
(dp344
g10
F837.763
sg11
F1714.068
sg12
F466.823
sg13
F1944.0
sg14
F0.37083428029819565
sba(ilocalization
box
p345
(dp346
g10
F482.238
sg11
F1247.565
sg12
F1101.657
sg13
F552.975
sg14
F0.3726930948635714
sba(ilocalization
box
p347
(dp348
g10
F235.985
sg11
F1536.973
sg12
F1378.123
sg13
F328.011
sg14
F0.3957391487712367
sba(ilocalization
box
p349
(dp350
g10
F1415.19
sg11
F2121.16
sg12
F2083.638
sg13
F1465.658
sg14
F0.37531109885139957
sba(ilocalization
box
p351
(dp352
g10
F494.454
sg11
F1666.72
sg12
F1578.665
sg13
F539.554
sg14
F0.369723444544059
sba(ilocalization
box
p353
(dp354
g10
F1909.069
sg11
F995.819
sg12
F956.7
sg13
F1944.0
sg14
F0.38022199479853436
sbatp355
Rp356
sS'platform'
p357
g2
((lp358
tp359
Rp360
sS'window'
p361
g2
((lp362
tp363
Rp364
sS'text'
p365
g2
((lp366
tp367
Rp368
sS'plate'
p369
g2
((lp370
tp371
Rp372
sS'vase'
p373
g2
((lp374
tp375
Rp376
sS'boxes'
p377
g2
((lp378
(ilocalization
box
p379
(dp380
g10
F421.385
sg11
F2125.879
sg12
F2077.364
sg13
F485.83
sg14
F0.38289288597511206
sba(ilocalization
box
p381
(dp382
g10
F247.007
sg11
F2312.759
sg12
F2204.217
sg13
F367.422
sg14
F0.38751527949936976
sba(ilocalization
box
p383
(dp384
g10
F1529.858
sg11
F2466.482
sg12
F2354.018
sg13
F1573.803
sg14
F0.410245302259044
sba(ilocalization
box
p385
(dp386
g10
F546.608
sg11
F476.631
sg12
F373.817
sg13
F637.775
sg14
F0.38251018447178037
sba(ilocalization
box
p387
(dp388
g10
F257.294
sg11
F2347.133
sg12
F2273.694
sg13
F348.392
sg14
F0.3953436074260998
sba(ilocalization
box
p389
(dp390
g10
F1657.711
sg11
F568.495
sg12
F475.569
sg13
F1685.392
sg14
F0.3817459286134471
sba(ilocalization
box
p391
(dp392
g10
F1850.464
sg11
F470.796
sg12
F314.829
sg13
F1883.089
sg14
F0.3871279579129404
sba(ilocalization
box
p393
(dp394
g10
F1489.904
sg11
F2385.805
sg12
F2248.625
sg13
F1554.496
sg14
F0.40575733301861544
sba(ilocalization
box
p395
(dp396
g10
F1044.083
sg11
F647.852
sg12
F535.339
sg13
F1085.458
sg14
F0.38596831437424217
sba(ilocalization
box
p397
(dp398
g10
F1.0
sg11
F1562.643
sg12
F1471.262
sg13
F54.964
sg14
F0.3957391487712367
sba(ilocalization
box
p399
(dp400
g10
F593.2304697265624
sg11
F1349.393091796875
sg12
F1057.76566015625
sg13
F750.5296279296874
sg14
F4.366891648262964
sba(ilocalization
box
p401
(dp402
g10
F1908.623
sg11
F2509.986
sg12
F2420.959
sg13
F1933.189
sg14
F0.3902374027719919
sba(ilocalization
box
p403
(dp404
g10
F824.123
sg11
F126.81
sg12
F43.191
sg13
F863.714
sg14
F0.38867957090175304
sba(ilocalization
box
p405
(dp406
g10
F142.398
sg11
F2333.89
sg12
F2207.095
sg13
F220.534
sg14
F0.397325275504954
sba(ilocalization
box
p407
(dp408
g10
F673.106
sg11
F2163.283
sg12
F129.321
sg13
F1488.057
sg14
F0.3836594380436134
sba(ilocalization
box
p409
(dp410
g10
F169.924
sg11
F111.952
sg12
F71.375
sg13
F251.578
sg14
F0.39692814882588245
sbatp411
Rp412
sS'cushion'
p413
g2
((lp414
(ilocalization
box
p415
(dp416
g10
F756.842
sg11
F1638.12
sg12
F1472.303
sg13
F865.512
sg14
F0.369353905899632
sba(ilocalization
box
p417
(dp418
g10
F1064.592
sg11
F526.603
sg12
F424.477
sg13
F1184.269
sg14
F0.36714441755772104
sba(ilocalization
box
p419
(dp420
g10
F1430.893
sg11
F703.409
sg12
F586.267
sg13
F1494.393
sg14
F0.37719235356315695
sba(ilocalization
box
p421
(dp422
g10
F892.2007109374999
sg11
F2507.1230078125
sg12
F2448.55296875
sg13
F959.1907109375
sg14
F2.963287814308178
sba(ilocalization
box
p423
(dp424
g10
F1294.524
sg11
F766.878
sg12
F686.567
sg13
F1333.045
sg14
F0.36458338072130303
sba(ilocalization
box
p425
(dp426
g10
F682.463
sg11
F1362.385
sg12
F1204.518
sg13
F795.02
sg14
F0.3715766910220457
sba(ilocalization
box
p427
(dp428
g10
F778.258
sg11
F1603.81
sg12
F1532.631
sg13
F865.509
sg14
F0.37083428029819565
sba(ilocalization
box
p429
(dp430
g10
F1175.582
sg11
F575.333
sg12
F1.0
sg13
F1619.385
sg14
F0.3941593538723422
sba(ilocalization
box
p431
(dp432
g10
F1505.469
sg11
F451.314
sg12
F334.351
sg13
F1562.97
sg14
F0.405351778496654
sba(ilocalization
box
p433
(dp434
g10
F823.331
sg11
F2206.724
sg12
F927.257
sg13
F1763.801
sg14
F0.3851971491677552
sbatp435
Rp436
sS'desk'
p437
g2
((lp438
(ilocalization
box
p439
(dp440
g10
F1755.418
sg11
F76.387
sg12
F1.0
sg13
F1783.756
sg14
F0.4334408238165043
sba(ilocalization
box
p441
(dp442
g10
F207.19650000000001
sg11
F189.05925
sg12
F93.14075
sg13
F263.7425
sg14
F1.3361783295085274
sba(ilocalization
box
p443
(dp444
g10
F1335.898
sg11
F594.7
sg12
F539.382
sg13
F1467.066
sg14
F0.39772279950933415
sba(ilocalization
box
p445
(dp446
g10
F1055.565
sg11
F2086.549
sg12
F1711.568
sg13
F1411.684
sg14
F0.39219347589350495
sba(ilocalization
box
p447
(dp448
g10
F883.61
sg11
F2043.762
sg12
F1696.202
sg13
F1217.504
sg14
F0.39101865857291823
sba(ilocalization
box
p449
(dp450
g10
F678.154
sg11
F2190.099
sg12
F2088.102
sg13
F811.913
sg14
F0.42955735821073915
sba(ilocalization
box
p451
(dp452
g10
F1233.758
sg11
F1617.046
sg12
F1562.709
sg13
F1355.284
sg14
F0.46673202886549986
sba(ilocalization
box
p453
(dp454
g10
F1676.941
sg11
F1060.759
sg12
F1066.723
sg13
F1772.027
sg14
F0.38674102345450123
sba(ilocalization
box
p455
(dp456
g10
F1482.16
sg11
F1217.374
sg12
F1104.424
sg13
F1536.218
sg14
F0.4176965779979988
sba(ilocalization
box
p457
(dp458
g10
F564.647
sg11
F2592.0
sg12
F2260.863
sg13
F782.424
sg14
F0.3832759703713616
sba(ilocalization
box
p459
(dp460
g10
F1411.338
sg11
F1359.907
sg12
F1155.01
sg13
F1708.053
sg14
F0.41147788611717057
sba(ilocalization
box
p461
(dp462
g10
F447.036
sg11
F1261.113
sg12
F1069.182
sg13
F568.817
sg14
F0.39812072123654696
sba(ilocalization
box
p463
(dp464
g10
F644.199
sg11
F691.007
sg12
F1.0
sg13
F1251.593
sg14
F0.5723526251566332
sba(ilocalization
box
p465
(dp466
g10
F1765.134
sg11
F1713.765
sg12
F1642.171
sg13
F1806.586
sg14
F0.43214244987974026
sba(ilocalization
box
p467
(dp468
g10
F1027.372
sg11
F1788.912
sg12
F1240.219
sg13
F1592.425
sg14
F0.4542988670756955
sba(ilocalization
box
p469
(dp470
g10
F578.599
sg11
F1059.586
sg12
F16.99
sg13
F1613.914
sg14
F0.3953436074260998
sbatp471
Rp472
sS'fireplace'
p473
g2
((lp474
(ilocalization
box
p475
(dp476
g10
F360.95
sg11
F1051.555
sg12
F550.101
sg13
F1102.657
sg14
F0.3642189795715233
sba(ilocalization
box
p477
(dp478
g10
F433.738
sg11
F823.855
sg12
F747.336
sg13
F489.893
sg14
F0.37083428029819565
sba(ilocalization
box
p479
(dp480
g10
F906.2715000000001
sg11
F2068.7455
sg12
F1858.45725
sg13
F1078.11175
sg14
F1.13733094324864
sba(ilocalization
box
p481
(dp482
g10
F59.449
sg11
F1241.145
sg12
F1030.754
sg13
F310.123
sg14
F0.3682475046136629
sba(ilocalization
box
p483
(dp484
g10
F460.42
sg11
F1358.347
sg12
F1104.978
sg13
F780.486
sg14
F0.3682475046136629
sba(ilocalization
box
p485
(dp486
g10
F107.249
sg11
F830.992
sg12
F740.676
sg13
F218.198
sg14
F0.3660446348040154
sba(ilocalization
box
p487
(dp488
g10
F1537.949
sg11
F1171.907
sg12
F1038.872
sg13
F1568.379
sg14
F0.37946231074621756
sba(ilocalization
box
p489
(dp490
g10
F1022.33
sg11
F1954.768
sg12
F1620.193
sg13
F1400.212
sg14
F0.36567877313053654
sba(ilocalization
box
p491
(dp492
g10
F921.398
sg11
F655.454
sg12
F288.158
sg13
F1426.148
sg14
F0.37606247217196515
sbatp493
Rp494
sS'bread'
p495
g2
((lp496
tp497
Rp498
sS'easel'
p499
g2
((lp500
(ilocalization
box
p501
(dp502
g10
F1910.183
sg11
F2592.0
sg12
F2634.115
sg13
F1103.727
sg14
F0.8878078007619501
sba(ilocalization
box
p503
(dp504
g10
F1870.049
sg11
F2592.0
sg12
F2641.642
sg13
F962.928
sg14
F0.8869204367171575
sba(ilocalization
box
p505
(dp506
g10
F1679.542
sg11
F2592.0
sg12
F2627.291
sg13
F900.486
sg14
F0.8869204367171575
sba(ilocalization
box
p507
(dp508
g10
F1848.067
sg11
F2592.0
sg12
F2640.346
sg13
F952.867
sg14
F0.8869204367171575
sba(ilocalization
box
p509
(dp510
g10
F1895.683
sg11
F2592.0
sg12
F2634.286
sg13
F1113.562
sg14
F0.8869204367171575
sba(ilocalization
box
p511
(dp512
g10
F505.043
sg11
F38.207
sg12
F1.311
sg13
F369.001
sg14
F0.8869204367171575
sba(ilocalization
box
p513
(dp514
g10
F1760.14
sg11
F2592.0
sg12
F2633.008
sg13
F912.626
sg14
F0.8869204367171575
sba(ilocalization
box
p515
(dp516
g10
F606.961
sg11
F45.996
sg12
F1.0
sg13
F447.511
sg14
F0.8869204367171575
sba(ilocalization
box
p517
(dp518
g10
F1749.149
sg11
F2592.0
sg12
F2632.36
sg13
F907.596
sg14
F0.8869204367171575
sba(ilocalization
box
p519
(dp520
g10
F1747.199
sg11
F2592.0
sg12
F2628.624
sg13
F931.45
sg14
F0.8869204367171575
sba(ilocalization
box
p521
(dp522
g10
F1870.164
sg11
F2592.0
sg12
F2640.168
sg13
F978.901
sg14
F0.8869204367171575
sba(ilocalization
box
p523
(dp524
g10
F1877.123
sg11
F2592.0
sg12
F2632.325
sg13
F1045.51
sg14
F0.8869204367171575
sba(ilocalization
box
p525
(dp526
g10
F1628.484
sg11
F2592.0
sg12
F2616.663
sg13
F959.433
sg14
F0.8869204367171575
sba(ilocalization
box
p527
(dp528
g10
F1787.598
sg11
F2592.0
sg12
F2629.377
sg13
F1165.977
sg14
F0.8869204367171575
sba(ilocalization
box
p529
(dp530
g10
F494.272
sg11
F43.494
sg12
F1.0
sg13
F450.165
sg14
F0.8869204367171575
sba(ilocalization
box
p531
(dp532
g10
F1359.845
sg11
F2592.0
sg12
F2569.267
sg13
F1318.055
sg14
F0.8869204367171575
sba(ilocalization
box
p533
(dp534
g10
F1.0
sg11
F213.0
sg12
F1.0
sg13
F1944.0
sg14
F0.9417645335842487
sba(ilocalization
box
p535
(dp536
g10
F1.0
sg11
F2569.506
sg12
F2521.896
sg13
F117.321
sg14
F0.9231163463866358
sba(ilocalization
box
p537
(dp538
g10
F568.392
sg11
F46.551
sg12
F1.0
sg13
F469.09
sg14
F0.9175942312201509
sba(ilocalization
box
p539
(dp540
g10
F1666.625
sg11
F2592.0
sg12
F2619.919
sg13
F949.171
sg14
F0.914845573574452
sba(ilocalization
box
p541
(dp542
g10
F580.397
sg11
F46.257
sg12
F1.0
sg13
F460.591
sg14
F0.9130177108992658
sba(ilocalization
box
p543
(dp544
g10
F1517.465
sg11
F2592.0
sg12
F2579.236
sg13
F1186.429
sg14
F0.9121051495450904
sba(ilocalization
box
p545
(dp546
g10
F551.68
sg11
F46.655
sg12
F1.0
sg13
F476.439
sg14
F0.910282762240767
sba(ilocalization
box
p547
(dp548
g10
F547.08
sg11
F47.69
sg12
F1.0
sg13
F445.343
sg14
F0.9093729344682314
sba(ilocalization
box
p549
(dp550
g10
F570.817
sg11
F47.709
sg12
F1.0
sg13
F485.197
sg14
F0.9075560061332727
sba(ilocalization
box
p551
(dp552
g10
F588.252
sg11
F45.798
sg12
F1.0
sg13
F451.13
sg14
F0.9066489037539209
sba(ilocalization
box
p553
(dp554
g10
F1468.091
sg11
F2592.0
sg12
F2602.926
sg13
F1358.315
sg14
F0.9066489037539209
sba(ilocalization
box
p555
(dp556
g10
F485.218
sg11
F41.17
sg12
F1.0
sg13
F380.427
sg14
F0.9066489037539209
sba(ilocalization
box
p557
(dp558
g10
F1510.174
sg11
F2592.0
sg12
F2579.974
sg13
F1150.149
sg14
F0.9057427080235485
sba(ilocalization
box
p559
(dp560
g10
F1518.029
sg11
F2592.0
sg12
F2593.048
sg13
F1221.994
sg14
F0.9039330328858641
sba(ilocalization
box
p561
(dp562
g10
F550.159
sg11
F51.692
sg12
F1.0
sg13
F491.816
sg14
F0.9039330328858641
sba(ilocalization
box
p563
(dp564
g10
F1680.389
sg11
F2592.0
sg12
F2623.616
sg13
F920.473
sg14
F0.9030295516688768
sba(ilocalization
box
p565
(dp566
g10
F1465.855
sg11
F2592.0
sg12
F2548.236
sg13
F1375.853
sg14
F0.9030295516688768
sba(ilocalization
box
p567
(dp568
g10
F1617.929
sg11
F2592.0
sg12
F2612.963
sg13
F986.443
sg14
F0.9030295516688768
sba(ilocalization
box
p569
(dp570
g10
F1568.026
sg11
F2592.0
sg12
F2607.09
sg13
F1042.192
sg14
F0.9021269734815165
sba(ilocalization
box
p571
(dp572
g10
F490.692
sg11
F40.569
sg12
F1.0
sg13
F372.328
sg14
F0.9021269734815165
sba(ilocalization
box
p573
(dp574
g10
F1693.412
sg11
F2592.0
sg12
F2627.274
sg13
F898.007
sg14
F0.9003245225862656
sba(ilocalization
box
p575
(dp576
g10
F1647.489
sg11
F2592.0
sg12
F2618.791
sg13
F940.413
sg14
F0.9003245225862656
sba(ilocalization
box
p577
(dp578
g10
F1627.47
sg11
F2592.0
sg12
F2612.831
sg13
F974.338
sg14
F0.899424648075924
sba(ilocalization
box
p579
(dp580
g10
F1571.351
sg11
F2592.0
sg12
F2599.356
sg13
F1091.974
sg14
F0.899424648075924
sba(ilocalization
box
p581
(dp582
g10
F1684.285
sg11
F2592.0
sg12
F2626.955
sg13
F933.123
sg14
F0.899424648075924
sba(ilocalization
box
p583
(dp584
g10
F1.0
sg11
F2592.0
sg12
F2200.633
sg13
F1944.0
sg14
F0.899424648075924
sba(ilocalization
box
p585
(dp586
g10
F1482.768
sg11
F2592.0
sg12
F2597.495
sg13
F1236.16
sg14
F0.899424648075924
sba(ilocalization
box
p587
(dp588
g10
F1491.814
sg11
F2592.0
sg12
F2612.176
sg13
F1202.963
sg14
F0.8985256729903055
sba(ilocalization
box
p589
(dp590
g10
F532.544
sg11
F49.355
sg12
F1.0
sg13
F467.681
sg14
F0.8976275964304349
sba(ilocalization
box
p591
(dp592
g10
F493.263
sg11
F39.869
sg12
F2.928
sg13
F363.61
sg14
F0.8967304174982355
sba(ilocalization
box
p593
(dp594
g10
F513.965
sg11
F48.114
sg12
F1.0
sg13
F510.943
sg14
F0.8958341352965282
sba(ilocalization
box
p595
(dp596
g10
F1494.859
sg11
F2592.0
sg12
F2577.379
sg13
F1289.79
sg14
F0.8958341352965282
sba(ilocalization
box
p597
(dp598
g10
F471.687
sg11
F40.425
sg12
F1.0
sg13
F374.235
sg14
F0.8958341352965282
sba(ilocalization
box
p599
(dp600
g10
F1857.539
sg11
F2592.0
sg12
F2636.947
sg13
F973.123
sg14
F0.894938748929031
sba(ilocalization
box
p601
(dp602
g10
F1680.405
sg11
F2592.0
sg12
F2613.235
sg13
F1296.309
sg14
F0.894938748929031
sba(ilocalization
box
p603
(dp604
g10
F2022.344
sg11
F2592.0
sg12
F2643.77
sg13
F1076.976
sg14
F0.894938748929031
sba(ilocalization
box
p605
(dp606
g10
F1897.997
sg11
F2592.0
sg12
F2636.441
sg13
F1020.066
sg14
F0.894938748929031
sba(ilocalization
box
p607
(dp608
g10
F2030.212
sg11
F2592.0
sg12
F2641.348
sg13
F1115.574
sg14
F0.8940442575003572
sba(ilocalization
box
p609
(dp610
g10
F1867.534
sg11
F2592.0
sg12
F2637.755
sg13
F1016.991
sg14
F0.8940442575003572
sba(ilocalization
box
p611
(dp612
g10
F476.438
sg11
F41.653
sg12
F1.0
sg13
F387.775
sg14
F0.8940442575003572
sba(ilocalization
box
p613
(dp614
g10
F473.262
sg11
F36.561
sg12
F3.7
sg13
F375.803
sg14
F0.8931506601160155
sba(ilocalization
box
p615
(dp616
g10
F1738.159
sg11
F2592.0
sg12
F2633.869
sg13
F902.566
sg14
F0.8931506601160155
sba(ilocalization
box
p617
(dp618
g10
F479.119
sg11
F41.635
sg12
F1.0
sg13
F428.232
sg14
F0.8931506601160155
sba(ilocalization
box
p619
(dp620
g10
F2000.806
sg11
F2592.0
sg12
F2645.61
sg13
F1077.985
sg14
F0.8931506601160155
sba(ilocalization
box
p621
(dp622
g10
F1537.633
sg11
F2592.0
sg12
F2607.64
sg13
F1051.576
sg14
F0.8931506601160155
sba(ilocalization
box
p623
(dp624
g10
F1557.293
sg11
F2592.0
sg12
F2582.751
sg13
F1171.714
sg14
F0.8922579558824083
sba(ilocalization
box
p625
(dp626
g10
F2012.929
sg11
F2592.0
sg12
F2650.063
sg13
F1028.32
sg14
F0.8922579558824083
sba(ilocalization
box
p627
(dp628
g10
F529.649
sg11
F50.563
sg12
F1.0
sg13
F482.429
sg14
F0.8922579558824083
sba(ilocalization
box
p629
(dp630
g10
F1991.94
sg11
F2592.0
sg12
F2639.092
sg13
F1098.058
sg14
F0.8913661439068313
sba(ilocalization
box
p631
(dp632
g10
F1519.957
sg11
F2592.0
sg12
F2600.841
sg13
F1095.21
sg14
F0.8913661439068313
sba(ilocalization
box
p633
(dp634
g10
F563.738
sg11
F45.339
sg12
F1.0
sg13
F452.967
sg14
F0.8913661439068313
sba(ilocalization
box
p635
(dp636
g10
F1895.414
sg11
F2592.0
sg12
F2639.179
sg13
F990.457
sg14
F0.8913661439068313
sba(ilocalization
box
p637
(dp638
g10
F1727.168
sg11
F2592.0
sg12
F2633.221
sg13
F897.536
sg14
F0.8913661439068313
sba(ilocalization
box
p639
(dp640
g10
F523.602
sg11
F47.383
sg12
F1.0
sg13
F496.889
sg14
F0.8904752232974726
sba(ilocalization
box
p641
(dp642
g10
F570.668
sg11
F52.822
sg12
F1.0
sg13
F501.203
sg14
F0.8904752232974726
sba(ilocalization
box
p643
(dp644
g10
F592.458
sg11
F45.198
sg12
F1.0
sg13
F440.874
sg14
F0.8904752232974726
sba(ilocalization
box
p645
(dp646
g10
F1882.453
sg11
F2592.0
sg12
F2635.525
sg13
F1012.952
sg14
F0.8904752232974726
sba(ilocalization
box
p647
(dp648
g10
F1510.865
sg11
F2592.0
sg12
F2576.994
sg13
F1256.557
sg14
F0.8904752232974726
sba(ilocalization
box
p649
(dp650
g10
F1541.024
sg11
F2592.0
sg12
F2594.338
sg13
F1133.531
sg14
F0.8904752232974726
sba(ilocalization
box
p651
(dp652
g10
F1597.264
sg11
F2592.0
sg12
F2614.027
sg13
F1013.56
sg14
F0.8895851931634113
sba(ilocalization
box
p653
(dp654
g10
F2037.887
sg11
F2592.0
sg12
F2644.686
sg13
F1084.089
sg14
F0.8895851931634113
sba(ilocalization
box
p655
(dp656
g10
F2017.825
sg11
F2592.0
sg12
F2644.575
sg13
F1055.308
sg14
F0.8895851931634113
sba(ilocalization
box
p657
(dp658
g10
F2004.17
sg11
F2592.0
sg12
F2654.937
sg13
F1031.995
sg14
F0.8895851931634113
sba(ilocalization
box
p659
(dp660
g10
F1695.933
sg11
F2592.0
sg12
F2624.532
sg13
F927.587
sg14
F0.8895851931634113
sba(ilocalization
box
p661
(dp662
g10
F463.905
sg11
F41.999
sg12
F1.0
sg13
F394.22
sg14
F0.8895851931634113
sba(ilocalization
box
p663
(dp664
g10
F1760.841
sg11
F2592.0
sg12
F2615.917
sg13
F1234.134
sg14
F0.8895851931634113
sba(ilocalization
box
p665
(dp666
g10
F1903.021
sg11
F2592.0
sg12
F2641.429
sg13
F978.018
sg14
F0.8886960526146174
sba(ilocalization
box
p667
(dp668
g10
F1930.435
sg11
F2592.0
sg12
F2630.791
sg13
F1231.35
sg14
F0.8886960526146174
sba(ilocalization
box
p669
(dp670
g10
F479.448
sg11
F39.806
sg12
F1.0
sg13
F401.334
sg14
F0.8886960526146174
sba(ilocalization
box
p671
(dp672
g10
F1896.043
sg11
F2592.0
sg12
F2637.397
sg13
F999.572
sg14
F0.8886960526146174
sba(ilocalization
box
p673
(dp674
g10
F1859.058
sg11
F2592.0
sg12
F2640.994
sg13
F957.898
sg14
F0.8886960526146174
sba(ilocalization
box
p675
(dp676
g10
F488.63
sg11
F44.281
sg12
F1.0
sg13
F463.656
sg14
F0.8886960526146174
sba(ilocalization
box
p677
(dp678
g10
F870.206
sg11
F652.574
sg12
F136.476
sg13
F1944.0
sg14
F0.8886960526146174
sba(ilocalization
box
p679
(dp680
g10
F1817.557
sg11
F2592.0
sg12
F2638.077
sg13
F994.118
sg14
F0.8886960526146174
sba(ilocalization
box
p681
(dp682
g10
F1743.913
sg11
F2592.0
sg12
F2630.25
sg13
F921.119
sg14
F0.8886960526146174
sba(ilocalization
box
p683
(dp684
g10
F1882.789
sg11
F2592.0
sg12
F2638.435
sg13
F984.679
sg14
F0.8886960526146174
sba(ilocalization
box
p685
(dp686
g10
F1882.512
sg11
F2592.0
sg12
F2636.6
sg13
F993.379
sg14
F0.8886960526146174
sba(ilocalization
box
p687
(dp688
g10
F1573.342
sg11
F2592.0
sg12
F2616.749
sg13
F1067.919
sg14
F0.8886960526146174
sba(ilocalization
box
p689
(dp690
g10
F1868.981
sg11
F2592.0
sg12
F2638.456
sg13
F987.186
sg14
F0.8878078007619501
sba(ilocalization
box
p691
(dp692
g10
F496.973
sg11
F42.618
sg12
F1.0
sg13
F436.404
sg14
F0.8878078007619501
sba(ilocalization
box
p693
(dp694
g10
F1896.259
sg11
F2592.0
sg12
F2633.453
sg13
F1054.268
sg14
F0.8878078007619501
sba(ilocalization
box
p695
(dp696
g10
F1533.079
sg11
F2592.0
sg12
F2597.1
sg13
F1074.458
sg14
F0.8878078007619501
sba(ilocalization
box
p697
(dp698
g10
F1756.538
sg11
F2592.0
sg12
F2630.994
sg13
F926.897
sg14
F0.8878078007619501
sba(ilocalization
box
p699
(dp700
g10
F1743.17
sg11
F2592.0
sg12
F2624.43
sg13
F984.203
sg14
F0.8878078007619501
sba(ilocalization
box
p701
(dp702
g10
F1766.072
sg11
F2592.0
sg12
F2623.393
sg13
F1207.85
sg14
F0.8878078007619501
sbatp703
Rp704
sS'towel'
p705
g2
((lp706
tp707
Rp708
sS'sofa'
p709
g2
((lp710
(ilocalization
box
p711
(dp712
g10
F923.758
sg11
F206.651
sg12
F138.546
sg13
F1066.828
sg14
F0.3686159363034188
sba(ilocalization
box
p713
(dp714
g10
F1469.586
sg11
F466.275
sg12
F1.0
sg13
F1747.909
sg14
F0.36677745665119665
sba(ilocalization
box
p715
(dp716
g10
F649.084
sg11
F1908.929
sg12
F1.0
sg13
F1944.0
sg14
F0.36677745665119665
sba(ilocalization
box
p717
(dp718
g10
F521.462
sg11
F429.848
sg12
F385.404
sg13
F617.436
sg14
F0.32922956683868165
sba(ilocalization
box
p719
(dp720
g10
F1811.453
sg11
F1523.406
sg12
F1545.878
sg13
F1944.0
sg14
F0.3595147764083289
sba(ilocalization
box
p721
(dp722
g10
F1688.908
sg11
F1871.64
sg12
F1882.648
sg13
F1839.583
sg14
F0.32562788715856034
sba(ilocalization
box
p723
(dp724
g10
F167.678
sg11
F128.742
sg12
F2.482
sg13
F304.596
sg14
F0.3520436871019846
sba(ilocalization
box
p725
(dp726
g10
F1043.963
sg11
F1701.25
sg12
F597.03
sg13
F1778.116
sg14
F0.5304656888619749
sba(ilocalization
box
p727
(dp728
g10
F1812.772
sg11
F1887.225
sg12
F1909.196
sg13
F1944.0
sg14
F0.3426656803483929
sba(ilocalization
box
p729
(dp730
g10
F596.96
sg11
F828.539
sg12
F781.435
sg13
F697.192
sg14
F0.3406158419310661
sba(ilocalization
box
p731
(dp732
g10
F698.055
sg11
F256.925
sg12
F7.095
sg13
F805.349
sg14
F0.4965853037914095
sba(ilocalization
box
p733
(dp734
g10
F1834.675
sg11
F1667.764
sg12
F1538.584
sg13
F1915.76
sg14
F0.4785474064288412
sba(ilocalization
box
p735
(dp736
g10
F735.585
sg11
F1593.413
sg12
F1453.154
sg13
F814.894
sg14
F0.4681343273480965
sba(ilocalization
box
p737
(dp738
g10
F1792.692
sg11
F1637.301
sg12
F1645.242
sg13
F1944.0
sg14
F0.3389170133321328
sba(ilocalization
box
p739
(dp740
g10
F983.791
sg11
F2592.0
sg12
F1301.46
sg13
F1943.333
sg14
F0.4470879265593564
sba(ilocalization
box
p741
(dp742
g10
F1807.542
sg11
F807.346
sg12
F818.597
sg13
F1944.0
sg14
F0.33790178589471304
sba(ilocalization
box
p743
(dp744
g10
F302.599
sg11
F86.631
sg12
F7.697
sg13
F354.361
sg14
F0.4151979020538666
sba(ilocalization
box
p745
(dp746
g10
F58.379
sg11
F657.337
sg12
F596.206
sg13
F136.498
sg14
F0.3345396069486076
sba(ilocalization
box
p747
(dp748
g10
F616.471
sg11
F522.55
sg12
F417.425
sg13
F674.462
sg14
F0.410245302259044
sba(ilocalization
box
p749
(dp750
g10
F1531.521
sg11
F241.816
sg12
F18.877
sg13
F1629.807
sg14
F0.4077912001142262
sba(ilocalization
box
p751
(dp752
g10
F695.536
sg11
F1066.07
sg12
F448.328
sg13
F1141.281
sg14
F0.4073836127417638
sba(ilocalization
box
p753
(dp754
g10
F976.2758533151
sg11
F2537.9146495885107
sg12
F2342.5959442899975
sg13
F1196.2098780945169
sg14
F10.056354346330524
sba(ilocalization
box
p755
(dp756
g10
F1181.465
sg11
F90.234
sg12
F19.704
sg13
F1336.766
sg14
F0.4037336098774634
sba(ilocalization
box
p757
(dp758
g10
F1374.932
sg11
F625.35
sg12
F469.392
sg13
F1439.167
sg14
F0.37643872273806595
sbatp759
Rp760
sS'rocks'
p761
g2
((lp762
tp763
Rp764
sS'bag'
p765
g2
((lp766
tp767
Rp768
sS'sand'
p769
g2
((lp770
(ilocalization
box
p771
(dp772
g10
F1932.815
sg11
F2484.016
sg12
F2262.08
sg13
F1909.84
sg14
F0.35098913865426146
sba(ilocalization
box
p773
(dp774
g10
F1563.802
sg11
F988.623
sg12
F12.031
sg13
F1944.0
sg14
F0.38289288597511206
sba(ilocalization
box
p775
(dp776
g10
F1492.372
sg11
F2476.176
sg12
F1.0
sg13
F1944.0
sg14
F0.36276501352395324
sba(ilocalization
box
p777
(dp778
g10
F713.934
sg11
F460.091
sg12
F332.377
sg13
F742.056
sg14
F0.35558178497828613
sba(ilocalization
box
p779
(dp780
g10
F1026.417
sg11
F2088.963
sg12
F1792.357
sg13
F1015.739
sg14
F0.35380831342700375
sba(ilocalization
box
p781
(dp782
g10
F20.786
sg11
F1774.619
sg12
F1520.818
sg13
F-8.671
sg14
F0.35345468195878016
sba(ilocalization
box
p783
(dp784
g10
F1169.524
sg11
F1561.553
sg12
F1013.773
sg13
F1267.543
sg14
F0.3516918193780669
sba(ilocalization
box
p785
(dp786
g10
F91.237
sg11
F1550.205
sg12
F1332.324
sg13
F68.345
sg14
F0.34680243942604977
sba(ilocalization
box
p787
(dp788
g10
F1268.35
sg11
F1627.9
sg12
F1433.971
sg13
F1361.896
sg14
F0.3513403033459978
sba(ilocalization
box
p789
(dp790
g10
F79.36449999999999
sg11
F2592.0
sg12
F2312.835
sg13
F20.7055
sg14
F0.6953418426307079
sbatp791
Rp792
sS'steps'
p793
g2
((lp794
tp795
Rp796
sS'rock'
p797
g2
((lp798
(ilocalization
box
p799
(dp800
g10
F719.568
sg11
F194.03
sg12
F10.353
sg13
F823.576
sg14
F0.35665013205257223
sba(ilocalization
box
p801
(dp802
g10
F1418.317
sg11
F2310.569
sg12
F2165.945
sg13
F1495.908
sg14
F0.3602345254702912
sba(ilocalization
box
p803
(dp804
g10
F1363.071
sg11
F2478.749
sg12
F2240.553
sg13
F1464.506
sg14
F0.36714441755772104
sba(ilocalization
box
p805
(dp806
g10
F1850.927
sg11
F238.065
sg12
F48.641
sg13
F1944.0
sg14
F0.37046363137324734
sba(ilocalization
box
p807
(dp808
g10
F1726.235
sg11
F1875.102
sg12
F1733.882
sg13
F1810.812
sg14
F0.3595147764083289
sba(ilocalization
box
p809
(dp810
g10
F687.774
sg11
F1586.8
sg12
F1471.129
sg13
F763.02
sg14
F0.3570069605691474
sba(ilocalization
box
p811
(dp812
g10
F1620.625
sg11
F1851.889
sg12
F1726.574
sg13
F1737.064
sg14
F0.35807958958991437
sba(ilocalization
box
p813
(dp814
g10
F1464.58175
sg11
F1022.1958125000001
sg12
F897.8543124999999
sg13
F1541.7370624999999
sg14
F1.8566366871405742
sba(ilocalization
box
p815
(dp816
g10
F1562.482
sg11
F2004.487
sg12
F1661.209
sg13
F1724.441
sg14
F0.3577216889804542
sba(ilocalization
box
p817
(dp818
g10
F772.763
sg11
F103.057
sg12
F12.532
sg13
F827.378
sg14
F0.3573641460927129
sba(ilocalization
box
p819
(dp820
g10
F933.291
sg11
F238.85
sg12
F144.077
sg13
F988.342
sg14
F0.36095571547083566
sba(ilocalization
box
p821
(dp822
g10
F1722.188
sg11
F2514.843
sg12
F2437.591
sg13
F1775.119
sg14
F0.36095571547083566
sbatp823
Rp824
sS'tower'
p825
g2
((lp826
tp827
Rp828
sS'river'
p829
g2
((lp830
(ilocalization
box
p831
(dp832
g10
F1949.936
sg11
F217.358
sg12
F1.0
sg13
F1879.867
sg14
F0.38674102345450123
sba(ilocalization
box
p833
(dp834
g10
F890.13
sg11
F312.917
sg12
F1.0
sg13
F942.304
sg14
F0.4261346085981487
sba(ilocalization
box
p835
(dp836
g10
F649.62
sg11
F2592.0
sg12
F2039.638
sg13
F762.482
sg14
F0.38289288597511206
sbatp837
Rp838
sS'tray'
p839
g2
((lp840
(ilocalization
box
p841
(dp842
g10
F1442.409
sg11
F2225.9445
sg12
F1962.345
sg13
F1477.3795
sg14
F0.7739038057298827
sba(ilocalization
box
p843
(dp844
g10
F1507.555
sg11
F781.716
sg12
F540.926
sg13
F1583.618
sg14
F0.43300759964087765
sba(ilocalization
box
p845
(dp846
g10
F797.025
sg11
F1393.612
sg12
F1166.999
sg13
F852.13
sg14
F0.40697643275294815
sba(ilocalization
box
p847
(dp848
g10
F1111.643
sg11
F1286.489
sg12
F1168.208
sg13
F1150.009
sg14
F0.38906844487723635
sba(ilocalization
box
p849
(dp850
g10
F1116.19
sg11
F1162.029
sg12
F1.0
sg13
F1936.148
sg14
F0.41644536602038007
sbatp851
Rp852
sS'clothes'
p853
g2
((lp854
(ilocalization
box
p855
(dp856
g10
F389.49
sg11
F2207.208
sg12
F2101.883
sg13
F464.304
sg14
F0.3591554413294046
sba(ilocalization
box
p857
(dp858
g10
F1537.62
sg11
F492.966
sg12
F1.0
sg13
F1866.267
sg14
F0.3634912695649568
sba(ilocalization
box
p859
(dp860
g10
F153.3065987854004
sg11
F604.8025971984864
sg12
F500.1474886779786
sg13
F320.5204911193848
sg14
F6.0201865129380465
sba(ilocalization
box
p861
(dp862
g10
F68.142
sg11
F1763.739
sg12
F1643.396
sg13
F205.415
sg14
F0.36204020854348745
sba(ilocalization
box
p863
(dp864
g10
F391.3
sg11
F1500.028
sg12
F1419.796
sg13
F477.783
sg14
F0.37870414454364976
sba(ilocalization
box
p865
(dp866
g10
F130.09
sg11
F1417.474
sg12
F1314.398
sg13
F204.421
sg14
F0.37870414454364976
sba(ilocalization
box
p867
(dp868
g10
F287.241
sg11
F2454.212
sg12
F2402.845
sg13
F413.502
sg14
F0.36567877313053654
sba(ilocalization
box
p869
(dp870
g10
F622.662
sg11
F2592.0
sg12
F1297.775
sg13
F1525.713
sg14
F0.4160291288076525
sba(ilocalization
box
p871
(dp872
g10
F1758.94
sg11
F137.255
sg12
F1.0
sg13
F1846.522
sg14
F0.36494814645449375
sba(ilocalization
box
p873
(dp874
g10
F1669.125
sg11
F136.832
sg12
F88.087
sg13
F1729.298
sg14
F0.3642189795715233
sba(ilocalization
box
p875
(dp876
g10
F266.622
sg11
F2188.04
sg12
F2112.68
sg13
F432.983
sg14
F0.35987447100205955
sba(ilocalization
box
p877
(dp878
g10
F370.583
sg11
F2350.183
sg12
F2298.835
sg13
F502.27
sg14
F0.369723444544059
sba(ilocalization
box
p879
(dp880
g10
F283.435
sg11
F1870.802
sg12
F1811.172
sg13
F416.062
sg14
F0.369353905899632
sba(ilocalization
box
p881
(dp882
g10
F354.302
sg11
F2321.147
sg12
F2237.684
sg13
F436.858
sg14
F0.3871279579129404
sbatp883
Rp884
sS'oven2'
p885
g2
((lp886
(ilocalization
box
p887
(dp888
g10
F1052.947
sg11
F1851.954
sg12
F1819.891
sg13
F1223.693
sg14
F0.37643872273806595
sba(ilocalization
box
p889
(dp890
g10
F1349.8208359374999
sg11
F1091.7385410156248
sg12
F1077.230783203125
sg13
F1245.772974609375
sg14
F3.81983736823193
sba(ilocalization
box
p891
(dp892
g10
F1502.402
sg11
F2218.434
sg12
F2186.73
sg13
F1447.717
sg14
F0.37794749315816506
sbatp893
Rp894
sS'bars'
p895
g2
((lp896
tp897
Rp898
sS'fence'
p899
g2
((lp900
(ilocalization
box
p901
(dp902
g10
F1919.604
sg11
F1733.334
sg12
F1535.95
sg13
F1939.511
sg14
F0.36131685172433853
sba(ilocalization
box
p903
(dp904
g10
F22.103
sg11
F1643.807
sg12
F1525.977
sg13
F54.156
sg14
F0.3602345254702912
sba(ilocalization
box
p905
(dp906
g10
F1909.738
sg11
F1007.463
sg12
F812.812
sg13
F1933.334
sg14
F0.3595147764083289
sba(ilocalization
box
p907
(dp908
g10
F17.585
sg11
F1880.383
sg12
F1785.817
sg13
F47.786
sg14
F0.3591554413294046
sba(ilocalization
box
p909
(dp910
g10
F38.405
sg11
F2528.364
sg12
F2393.671
sg13
F80.945
sg14
F0.3587964654059516
sba(ilocalization
box
p911
(dp912
g10
F1907.619
sg11
F1691.316
sg12
F1488.842
sg13
F1937.353
sg14
F0.3587964654059516
sba(ilocalization
box
p913
(dp914
g10
F1815.877
sg11
F1588.97
sg12
F1476.142
sg13
F1909.792
sg14
F0.3584378482789939
sba(ilocalization
box
p915
(dp916
g10
F1895.025
sg11
F2592.0
sg12
F2345.067
sg13
F1932.213
sg14
F0.3584378482789939
sba(ilocalization
box
p917
(dp918
g10
F16.159
sg11
F456.245
sg12
F341.505
sg13
F42.825
sg14
F0.3577216889804542
sba(ilocalization
box
p919
(dp920
g10
F1800.826
sg11
F1673.962
sg12
F1545.197
sg13
F1902.02
sg14
F0.3577216889804542
sba(ilocalization
box
p921
(dp922
g10
F1888.045
sg11
F1062.353
sg12
F888.121
sg13
F1902.102
sg14
F0.3573641460927129
sba(ilocalization
box
p923
(dp924
g10
F10.118
sg11
F1191.943
sg12
F1068.858
sg13
F86.227
sg14
F0.35665013205257223
sba(ilocalization
box
p925
(dp926
g10
F1.0
sg11
F1959.272
sg12
F1876.089
sg13
F32.353
sg14
F0.3562936601861588
sba(ilocalization
box
p927
(dp928
g10
F1.701
sg11
F2537.557
sg12
F2431.621
sg13
F37.31
sg14
F0.3562936601861588
sba(ilocalization
box
p929
(dp930
g10
F1839.207
sg11
F220.119
sg12
F1.0
sg13
F1857.852
sg14
F0.35593754461343535
sba(ilocalization
box
p931
(dp932
g10
F1876.508
sg11
F270.206
sg12
F80.186
sg13
F1896.462
sg14
F0.35558178497828613
sba(ilocalization
box
p933
(dp934
g10
F1858.518
sg11
F1129.456
sg12
F921.406
sg13
F1879.782
sg14
F0.35558178497828613
sba(ilocalization
box
p935
(dp936
g10
F1866.627
sg11
F188.668
sg12
F1.0
sg13
F1878.88
sg14
F0.35558178497828613
sba(ilocalization
box
p937
(dp938
g10
F1868.55
sg11
F583.69
sg12
F390.196
sg13
F1883.88
sg14
F0.3552263809249515
sba(ilocalization
box
p939
(dp940
g10
F1.0
sg11
F2380.756
sg12
F2288.109
sg13
F32.688
sg14
F0.3548713320980274
sba(ilocalization
box
p941
(dp942
g10
F1859.352
sg11
F1519.807
sg12
F1328.788
sg13
F1883.308
sg14
F0.35416229870357024
sba(ilocalization
box
p943
(dp944
g10
F1920.659
sg11
F1904.303
sg12
F1714.148
sg13
F1938.994
sg14
F0.35416229870357024
sba(ilocalization
box
p945
(dp946
g10
F1907.715
sg11
F429.039
sg12
F191.062
sg13
F1931.107
sg14
F0.35416229870357024
sba(ilocalization
box
p947
(dp948
g10
F1840.242
sg11
F695.242
sg12
F430.805
sg13
F1869.76
sg14
F0.35380831342700375
sba(ilocalization
box
p949
(dp950
g10
F1922.071
sg11
F1568.347
sg12
F1391.15
sg13
F1935.446
sg14
F0.35345468195878016
sba(ilocalization
box
p951
(dp952
g10
F33.114
sg11
F919.436
sg12
F800.893
sg13
F60.032
sg14
F0.35345468195878016
sba(ilocalization
box
p953
(dp954
g10
F1872.228
sg11
F2020.3
sg12
F1692.055
sg13
F1930.718
sg14
F0.35239590686961875
sba(ilocalization
box
p955
(dp956
g10
F1855.548
sg11
F691.363
sg12
F388.497
sg13
F1895.961
sg14
F0.3520436871019846
sba(ilocalization
box
p957
(dp958
g10
F1818.857
sg11
F113.628
sg12
F6.315
sg13
F1916.372
sg14
F0.3520436871019846
sba(ilocalization
box
p959
(dp960
g10
F16.84
sg11
F1079.787
sg12
F986.157
sg13
F80.74
sg14
F0.3516918193780669
sba(ilocalization
box
p961
(dp962
g10
F59.651
sg11
F1894.251
sg12
F1775.51
sg13
F91.285
sg14
F0.3516918193780669
sba(ilocalization
box
p963
(dp964
g10
F1841.652
sg11
F810.421
sg12
F491.065
sg13
F1884.576
sg14
F0.3513403033459978
sba(ilocalization
box
p965
(dp966
g10
F1835.584
sg11
F845.152
sg12
F665.463
sg13
F1847.828
sg14
F0.3513403033459978
sba(ilocalization
box
p967
(dp968
g10
F5.416
sg11
F1815.942
sg12
F1710.637
sg13
F30.262
sg14
F0.35098913865426146
sba(ilocalization
box
p969
(dp970
g10
F1887.814
sg11
F1522.191
sg12
F1337.563
sg13
F1912.144
sg14
F0.35098913865426146
sba(ilocalization
box
p971
(dp972
g10
F48.153
sg11
F830.83
sg12
F720.87
sg13
F70.501
sg14
F0.35098913865426146
sba(ilocalization
box
p973
(dp974
g10
F1795.808
sg11
F2592.0
sg12
F2459.1
sg13
F1901.469
sg14
F0.35063832495169295
sba(ilocalization
box
p975
(dp976
g10
F51.466
sg11
F1722.268
sg12
F1626.973
sg13
F81.802
sg14
F0.35063832495169295
sba(ilocalization
box
p977
(dp978
g10
F1881.401
sg11
F420.156
sg12
F243.593
sg13
F1896.835
sg14
F0.3499377491111553
sba(ilocalization
box
p979
(dp980
g10
F1910.612
sg11
F1516.172
sg12
F1246.36
sg13
F1944.0
sg14
F0.3495879862726104
sba(ilocalization
box
p981
(dp982
g10
F15.161
sg11
F2542.517
sg12
F2253.893
sg13
F86.781
sg14
F0.3492385730220808
sba(ilocalization
box
p983
(dp984
g10
F1.0
sg11
F1522.791
sg12
F1392.523
sg13
F27.942
sg14
F0.3492385730220808
sba(ilocalization
box
p985
(dp986
g10
F1901.719
sg11
F1593.378
sg12
F1418.391
sg13
F1921.125
sg14
F0.34888950901015336
sba(ilocalization
box
p987
(dp988
g10
F1857.298
sg11
F218.957
sg12
F50.647
sg13
F1874.041
sg14
F0.34888950901015336
sba(ilocalization
box
p989
(dp990
g10
F1839.16
sg11
F1182.709
sg12
F1014.11
sg13
F1855.739
sg14
F0.348540793887764
sba(ilocalization
box
p991
(dp992
g10
F1909.118
sg11
F2178.118
sg12
F1975.737
sg13
F1928.695
sg14
F0.3481924273061976
sba(ilocalization
box
p993
(dp994
g10
F1894.737
sg11
F2209.488
sg12
F2040.373
sg13
F1908.102
sg14
F0.3481924273061976
sba(ilocalization
box
p995
(dp996
g10
F1906.247
sg11
F2260.508
sg12
F2084.038
sg13
F1929.433
sg14
F0.3478444089170874
sba(ilocalization
box
p997
(dp998
g10
F1872.836
sg11
F372.228
sg12
F166.945
sg13
F1891.279
sg14
F0.3478444089170874
sba(ilocalization
box
p999
(dp1000
g10
F60.26
sg11
F1105.247
sg12
F999.634
sg13
F93.324
sg14
F0.34749673837241524
sba(ilocalization
box
p1001
(dp1002
g10
F20.292
sg11
F1594.099
sg12
F1447.581
sg13
F54.319
sg14
F0.34749673837241524
sba(ilocalization
box
p1003
(dp1004
g10
F1899.034
sg11
F2395.113
sg12
F2175.21
sg13
F1928.945
sg14
F0.34749673837241524
sba(ilocalization
box
p1005
(dp1006
g10
F1819.686
sg11
F2282.885
sg12
F1978.435
sg13
F1864.844
sg14
F0.3471494153245103
sba(ilocalization
box
p1007
(dp1008
g10
F14.856
sg11
F1378.297
sg12
F1268.218
sg13
F49.97
sg14
F0.3471494153245103
sba(ilocalization
box
p1009
(dp1010
g10
F1836.373
sg11
F1256.811
sg12
F1142.696
sg13
F1926.704
sg14
F0.3471494153245103
sba(ilocalization
box
p1011
(dp1012
g10
F1847.611
sg11
F453.094
sg12
F266.664
sg13
F1861.782
sg14
F0.3471494153245103
sba(ilocalization
box
p1013
(dp1014
g10
F60.464
sg11
F663.3
sg12
F546.484
sg13
F86.808
sg14
F0.3464558103300574
sba(ilocalization
box
p1015
(dp1016
g10
F1860.708
sg11
F2487.825
sg12
F2281.963
sg13
F1896.452
sg14
F0.3461095276899044
sba(ilocalization
box
p1017
(dp1018
g10
F1920.495
sg11
F2073.79
sg12
F1894.786
sg13
F1936.296
sg14
F0.34576359115930777
sba(ilocalization
box
p1019
(dp1020
g10
F44.393
sg11
F449.892
sg12
F333.226
sg13
F73.932
sg14
F0.3454180003923312
sba(ilocalization
box
p1021
(dp1022
g10
F1797.388
sg11
F735.008
sg12
F623.506
sg13
F1887.511
sg14
F0.3454180003923312
sba(ilocalization
box
p1023
(dp1024
g10
F1853.952
sg11
F636.042
sg12
F108.052
sg13
F1944.0
sg14
F0.3454180003923312
sba(ilocalization
box
p1025
(dp1026
g10
F51.205
sg11
F1516.411
sg12
F1397.632
sg13
F81.441
sg14
F0.34507275504338375
sba(ilocalization
box
p1027
(dp1028
g10
F1858.908
sg11
F1379.437
sg12
F1187.505
sg13
F1883.562
sg14
F0.34507275504338375
sba(ilocalization
box
p1029
(dp1030
g10
F1835.076
sg11
F1515.123
sg12
F1273.679
sg13
F1874.603
sg14
F0.3447278547672202
sba(ilocalization
box
p1031
(dp1032
g10
F1922.19
sg11
F1319.784
sg12
F1144.514
sg13
F1933.912
sg14
F0.3447278547672202
sba(ilocalization
box
p1033
(dp1034
g10
F14.01
sg11
F748.921
sg12
F672.305
sg13
F67.871
sg14
F0.34438329921894
sba(ilocalization
box
p1035
(dp1036
g10
F1850.667
sg11
F2572.048
sg12
F2428.927
sg13
F1944.0
sg14
F0.34438329921894
sba(ilocalization
box
p1037
(dp1038
g10
F21.571
sg11
F1622.838
sg12
F1521.881
sg13
F88.159
sg14
F0.34403908805398786
sba(ilocalization
box
p1039
(dp1040
g10
F46.64
sg11
F1817.169
sg12
F1601.775
sg13
F104.446
sg14
F0.3433516974975665
sba(ilocalization
box
p1041
(dp1042
g10
F1866.263
sg11
F1438.698
sg12
F1217.21
sg13
F1899.2
sg14
F0.3433516974975665
sba(ilocalization
box
p1043
(dp1044
g10
F16.53
sg11
F2520.453
sg12
F2145.666
sg13
F124.378
sg14
F0.3433516974975665
sba(ilocalization
box
p1045
(dp1046
g10
F22.001
sg11
F1998.302
sg12
F1889.84
sg13
F52.229
sg14
F0.34300851741870664
sba(ilocalization
box
p1047
(dp1048
g10
F22.736
sg11
F1490.107
sg12
F1378.228
sg13
F50.919
sg14
F0.34300851741870664
sba(ilocalization
box
p1049
(dp1050
g10
F38.073
sg11
F632.378
sg12
F554.133
sg13
F94.338
sg14
F0.3426656803483929
sba(ilocalization
box
p1051
(dp1052
g10
F61.631
sg11
F575.133
sg12
F457.816
sg13
F92.788
sg14
F0.34232318594378797
sba(ilocalization
box
p1053
(dp1054
g10
F29.95
sg11
F474.223
sg12
F332.208
sg13
F62.009
sg14
F0.3419810338623976
sba(ilocalization
box
p1055
(dp1056
g10
F6.7
sg11
F1611.638
sg12
F1498.254
sg13
F33.241
sg14
F0.3419810338623976
sba(ilocalization
box
p1057
(dp1058
g10
F19.454
sg11
F637.448
sg12
F500.616
sg13
F59.881
sg14
F0.3419810338623976
sba(ilocalization
box
p1059
(dp1060
g10
F32.914
sg11
F693.043
sg12
F586.626
sg13
F62.357
sg14
F0.3419810338623976
sba(ilocalization
box
p1061
(dp1062
g10
F1929.218
sg11
F922.874
sg12
F690.779
sg13
F1944.0
sg14
F0.3419810338623976
sba(ilocalization
box
p1063
(dp1064
g10
F35.274
sg11
F1027.766
sg12
F865.137
sg13
F77.779
sg14
F0.34163922376206945
sba(ilocalization
box
p1065
(dp1066
g10
F1838.597
sg11
F474.539
sg12
F286.726
sg13
F1846.481
sg14
F0.3412977553009937
sba(ilocalization
box
p1067
(dp1068
g10
F1922.823
sg11
F1285.228
sg12
F1071.322
sg13
F1944.0
sg14
F0.3412977553009937
sba(ilocalization
box
p1069
(dp1070
g10
F1908.723
sg11
F1325.108
sg12
F1061.544
sg13
F1944.0
sg14
F0.3412977553009937
sba(ilocalization
box
p1071
(dp1072
g10
F1822.905
sg11
F899.308
sg12
F582.651
sg13
F1868.195
sg14
F0.34095662813770156
sba(ilocalization
box
p1073
(dp1074
g10
F71.017
sg11
F534.116
sg12
F395.038
sg13
F95.654
sg14
F0.34095662813770156
sba(ilocalization
box
p1075
(dp1076
g10
F1912.893
sg11
F2444.6
sg12
F2282.102
sg13
F1937.439
sg14
F0.34095662813770156
sba(ilocalization
box
p1077
(dp1078
g10
F1893.642
sg11
F1114.86
sg12
F857.223
sg13
F1931.516
sg14
F0.3406158419310661
sba(ilocalization
box
p1079
(dp1080
g10
F1849.439
sg11
F2418.162
sg12
F2180.279
sg13
F1882.575
sg14
F0.3406158419310661
sba(ilocalization
box
p1081
(dp1082
g10
F1888.129
sg11
F2189.734
sg12
F1988.108
sg13
F1910.766
sg14
F0.3406158419310661
sba(ilocalization
box
p1083
(dp1084
g10
F581.374
sg11
F2592.0
sg12
F1744.499
sg13
F1185.125
sg14
F0.4218944983973639
sba(ilocalization
box
p1085
(dp1086
g10
F84.405
sg11
F2592.0
sg12
F35.805
sg13
F1841.092
sg14
F0.41811448349391933
sba(ilocalization
box
p1087
(dp1088
g10
F1875.807
sg11
F2592.0
sg12
F2486.066
sg13
F1944.0
sg14
F0.3871279579129404
sba(ilocalization
box
p1089
(dp1090
g10
F1913.539
sg11
F1713.506
sg12
F1502.344
sg13
F1927.361
sg14
F0.369353905899632
sba(ilocalization
box
p1091
(dp1092
g10
F1872.674
sg11
F510.083
sg12
F300.911
sg13
F1891.581
sg14
F0.3675117456086936
sba(ilocalization
box
p1093
(dp1094
g10
F30.003
sg11
F2530.448
sg12
F2421.876
sg13
F63.615
sg14
F0.3660446348040154
sba(ilocalization
box
p1095
(dp1096
g10
F1844.936
sg11
F794.445
sg12
F576.615
sg13
F1872.147
sg14
F0.36385494264075363
sba(ilocalization
box
p1097
(dp1098
g10
F1906.468
sg11
F1181.413
sg12
F930.975
sg13
F1942.593
sg14
F0.3634912695649568
sba(ilocalization
box
p1099
(dp1100
g10
F53.51
sg11
F919.146
sg12
F840.754
sg13
F106.439
sg14
F0.3624024298324904
sba(ilocalization
box
p1101
(dp1102
g10
F18.059
sg11
F1171.038
sg12
F1085.127
sg13
F71.356
sg14
F0.3624024298324904
sbatp1103
Rp1104
sS'railing'
p1105
g2
((lp1106
tp1107
Rp1108
sS'sign'
p1109
g2
((lp1110
tp1111
Rp1112
sS'books'
p1113
g2
((lp1114
tp1115
Rp1116
sS'sea'
p1117
g2
((lp1118
(ilocalization
box
p1119
(dp1120
g10
F716.833
sg11
F399.415
sg12
F1.0
sg13
F771.527
sg14
F0.39258586553151836
sba(ilocalization
box
p1121
(dp1122
g10
F58.846
sg11
F2555.573
sg12
F1715.939
sg13
F253.515
sg14
F0.369353905899632
sba(ilocalization
box
p1123
(dp1124
g10
F1680.4769999999999
sg11
F226.56
sg12
F2.467
sg13
F1800.1135
sg14
F0.7017011357727432
sba(ilocalization
box
p1125
(dp1126
g10
F687.29
sg11
F239.094
sg12
F1.0
sg13
F817.58
sg14
F0.3395955256449391
sba(ilocalization
box
p1127
(dp1128
g10
F583.804
sg11
F2592.0
sg12
F2278.839
sg13
F774.771
sg14
F0.3236799694325368
sba(ilocalization
box
p1129
(dp1130
g10
F45.096
sg11
F2440.597
sg12
F2258.789
sg13
F68.753
sg14
F0.32142212133439135
sba(ilocalization
box
p1131
(dp1132
g10
F59.449
sg11
F2543.237
sg12
F1890.234
sg13
F174.445
sg14
F0.5210027286033344
sbatp1133
Rp1134
sS'mirror'
p1135
g2
((lp1136
tp1137
Rp1138
sS'candle'
p1139
g2
((lp1140
(ilocalization
box
p1141
(dp1142
g10
F1456.198
sg11
F647.948
sg12
F514.962
sg13
F1517.069
sg14
F0.34888950901015336
sba(ilocalization
box
p1143
(dp1144
g10
F606.5905
sg11
F2022.378
sg12
F1976.8890000000001
sg13
F749.3340000000001
sg14
F0.7251783208943814
sba(ilocalization
box
p1145
(dp1146
g10
F1631.428
sg11
F1153.572
sg12
F1062.697
sg13
F1652.382
sg14
F0.36385494264075363
sba(ilocalization
box
p1147
(dp1148
g10
F544.872
sg11
F478.71
sg12
F453.076
sg13
F644.442
sg14
F0.3520436871019846
sbatp1149
Rp1150
sS'closet'
p1151
g2
((lp1152
tp1153
Rp1154
sS'clock'
p1155
g2
((lp1156
tp1157
Rp1158
sS'dome2'
p1159
g2
((lp1160
(ilocalization
box
p1161
(dp1162
g10
F375.531
sg11
F1517.93
sg12
F1409.074
sg13
F384.097
sg14
F0.33925609986047195
sba(ilocalization
box
p1163
(dp1164
g10
F743.8815
sg11
F469.44500000000005
sg12
F449.0265
sg13
F826.2005
sg14
F0.7264480231200732
sba(ilocalization
box
p1165
(dp1166
g10
F1456.668
sg11
F2042.13
sg12
F1754.575
sg13
F1755.094
sg14
F0.3719484535633582
sba(ilocalization
box
p1167
(dp1168
g10
F1605.735
sg11
F1345.903
sg12
F1342.483
sg13
F1678.789
sg14
F0.36385494264075363
sbatp1169
Rp1170
sS'microwave'
p1171
g2
((lp1172
(ilocalization
box
p1173
(dp1174
g10
F1589.109
sg11
F134.236
sg12
F1.0
sg13
F1846.365
sg14
F0.33925609986047195
sba(ilocalization
box
p1175
(dp1176
g10
F806.902
sg11
F2592.0
sg12
F2428.107
sg13
F1104.399
sg14
F0.3412977553009937
sba(ilocalization
box
p1177
(dp1178
g10
F1533.877
sg11
F482.218
sg12
F384.029
sg13
F1616.352
sg14
F0.34749673837241524
sba(ilocalization
box
p1179
(dp1180
g10
F1797.169
sg11
F876.043
sg12
F811.08
sg13
F1911.604
sg14
F0.3389170133321328
sba(ilocalization
box
p1181
(dp1182
g10
F1511.896
sg11
F509.282
sg12
F465.428
sg13
F1564.074
sg14
F0.33722665767618487
sba(ilocalization
box
p1183
(dp1184
g10
F609.58
sg11
F2064.781
sg12
F1.0
sg13
F1944.0
sg14
F0.33520935568799465
sba(ilocalization
box
p1185
(dp1186
g10
F153.07903124999999
sg11
F65.12506249999998
sg12
F5.82046875
sg13
F212.29903124999998
sg14
F2.027492673508825
sba(ilocalization
box
p1187
(dp1188
g10
F1095.019
sg11
F1187.865
sg12
F1143.015
sg13
F1493.975
sg14
F0.3426656803483929
sba(ilocalization
box
p1189
(dp1190
g10
F998.307
sg11
F1470.066
sg12
F943.978
sg13
F1023.8
sg14
F0.3355447327042427
sba(ilocalization
box
p1191
(dp1192
g10
F1364.873
sg11
F2529.011
sg12
F2371.483
sg13
F1463.008
sg14
F0.3345396069486076
sba(ilocalization
box
p1193
(dp1194
g10
F864.166
sg11
F1867.949
sg12
F1773.642
sg13
F928.044
sg14
F0.33520935568799465
sba(ilocalization
box
p1195
(dp1196
g10
F1097.835
sg11
F1283.924
sg12
F1055.916
sg13
F1255.938
sg14
F0.34163922376206945
sba(ilocalization
box
p1197
(dp1198
g10
F65.519
sg11
F1026.084
sg12
F582.191
sg13
F411.179
sg14
F0.3464558103300574
sba(ilocalization
box
p1199
(dp1200
g10
F1134.403
sg11
F2568.224
sg12
F2534.236
sg13
F1201.196
sg14
F0.3385782657208353
sba(ilocalization
box
p1201
(dp1202
g10
F83.529
sg11
F2476.843
sg12
F1965.915
sg13
F701.036
sg14
F0.3348743138811302
sba(ilocalization
box
p1203
(dp1204
g10
F1870.248
sg11
F2074.332
sg12
F2052.039
sg13
F1929.32
sg14
F0.3406158419310661
sba(ilocalization
box
p1205
(dp1206
g10
F530.516
sg11
F1126.372
sg12
F1.0
sg13
F1501.937
sg14
F0.336552878364737
sba(ilocalization
box
p1207
(dp1208
g10
F1124.573
sg11
F1119.87
sg12
F1121.427
sg13
F1243.078
sg14
F0.3348743138811302
sba(ilocalization
box
p1209
(dp1210
g10
F1605.237
sg11
F-4.067
sg12
F1.0
sg13
F1944.0
sg14
F0.33925609986047195
sba(ilocalization
box
p1211
(dp1212
g10
F367.98
sg11
F1038.683
sg12
F619.498
sg13
F731.998
sg14
F0.3605949401730783
sbatp1213
Rp1214
sS'chandelier2'
p1215
g2
((lp1216
tp1217
Rp1218
sS'umbrella'
p1219
g2
((lp1220
(ilocalization
box
p1221
(dp1222
g10
F1608.0102499999998
sg11
F2165.5845
sg12
F2088.22675
sg13
F1717.89725
sg14
F1.137213592357626
sba(ilocalization
box
p1223
(dp1224
g10
F1445.448
sg11
F93.597
sg12
F81.203
sg13
F1633.037
sg14
F0.3745612267757298
sba(ilocalization
box
p1225
(dp1226
g10
F1571.387
sg11
F1112.245
sg12
F1093.688
sg13
F1757.733
sg14
F0.3675117456086936
sba(ilocalization
box
p1227
(dp1228
g10
F705.472
sg11
F280.534
sg12
F239.911
sg13
F817.817
sg14
F0.40697643275294815
sbatp1229
Rp1230
sS'cars'
p1231
g2
((lp1232
tp1233
Rp1234
sS'screen'
p1235
g2
((lp1236
tp1237
Rp1238
sS'rug'
p1239
g2
((lp1240
tp1241
Rp1242
sS'dome'
p1243
g2
((lp1244
tp1245
Rp1246
sS'water'
p1247
g2
((lp1248
tp1249
Rp1250
sS'bookcase'
p1251
g2
((lp1252
(ilocalization
box
p1253
(dp1254
g10
F23.759
sg11
F2592.0
sg12
F669.805
sg13
F1935.273
sg14
F1.3716302556260427
sba(ilocalization
box
p1255
(dp1256
g10
F49.091
sg11
F256.219
sg12
F1.0
sg13
F667.909
sg14
F0.3871279579129404
sba(ilocalization
box
p1257
(dp1258
g10
F1.0
sg11
F345.507
sg12
F37.022
sg13
F377.065
sg14
F0.4118895698108276
sbatp1259
Rp1260
sS'sink'
p1261
g2
((lp1262
tp1263
Rp1264
sS'path'
p1265
g2
((lp1266
tp1267
Rp1268
sS'headstone'
p1269
g2
((lp1270
tp1271
Rp1272
sS'box'
p1273
g2
((lp1274
tp1275
Rp1276
sS'dishwasher'
p1277
g2
((lp1278
tp1279
Rp1280
sS'shelves'
p1281
g2
((lp1282
(ilocalization
box
p1283
(dp1284
g10
F112.036
sg11
F190.558
sg12
F108.525
sg13
F296.446
sg14
F0.304525637492119
sba(ilocalization
box
p1285
(dp1286
g10
F1828.861
sg11
F1458.435
sg12
F1361.861
sg13
F1928.826
sg14
F0.2978992311994101
sba(ilocalization
box
p1287
(dp1288
g10
F1747.292
sg11
F1009.645
sg12
F939.624
sg13
F1944.0
sg14
F0.3605949401730783
sba(ilocalization
box
p1289
(dp1290
g10
F1014.541
sg11
F90.029
sg12
F1.094
sg13
F1181.715
sg14
F0.2978992311994101
sba(ilocalization
box
p1291
(dp1292
g10
F826.546
sg11
F176.91
sg12
F20.187
sg13
F962.5
sg14
F0.35239590686961875
sba(ilocalization
box
p1293
(dp1294
g10
F442.414
sg11
F2282.688
sg12
F2237.216
sg13
F555.318
sg14
F0.3447278547672202
sba(ilocalization
box
p1295
(dp1296
g10
F848.453
sg11
F2592.0
sg12
F2530.195
sg13
F978.476
sg14
F0.3433516974975665
sba(ilocalization
box
p1297
(dp1298
g10
F1738.978
sg11
F2504.876
sg12
F2388.267
sg13
F1941.31
sg14
F0.2949350843229809
sba(ilocalization
box
p1299
(dp1300
g10
F840.592
sg11
F2232.58
sg12
F2145.54
sg13
F1003.027
sg14
F0.33993529102496034
sba(ilocalization
box
p1301
(dp1302
g10
F675.679
sg11
F2079.839
sg12
F1984.403
sg13
F863.222
sg14
F0.3395955256449391
sba(ilocalization
box
p1303
(dp1304
g10
F742.746
sg11
F2592.0
sg12
F2536.606
sg13
F868.052
sg14
F0.3385782657208353
sba(ilocalization
box
p1305
(dp1306
g10
F693.137
sg11
F2200.515
sg12
F2137.216
sg13
F833.045
sg14
F0.31600412869186256
sba(ilocalization
box
p1307
(dp1308
g10
F232.273
sg11
F1985.539
sg12
F1947.089
sg13
F323.116
sg14
F0.33688959957564707
sba(ilocalization
box
p1309
(dp1310
g10
F1726.188
sg11
F1064.393
sg12
F986.925
sg13
F1944.0
sg14
F0.2922925776808594
sba(ilocalization
box
p1311
(dp1312
g10
F744.616
sg11
F2513.565
sg12
F2398.223
sg13
F806.022
sg14
F0.3305491224578677
sba(ilocalization
box
p1313
(dp1314
g10
F1758.33
sg11
F1501.365
sg12
F1432.61
sg13
F1944.0
sg14
F0.2914170139500857
sba(ilocalization
box
p1315
(dp1316
g10
F701.585
sg11
F2136.611
sg12
F2028.104
sg13
F934.184
sg14
F0.3285717657253846
sba(ilocalization
box
p1317
(dp1318
g10
F1766.464
sg11
F1889.848
sg12
F1827.794
sg13
F1944.0
sg14
F0.32791527889958855
sba(ilocalization
box
p1319
(dp1320
g10
F1536.528
sg11
F2284.724
sg12
F2160.854
sg13
F1758.353
sg14
F0.2911257425960852
sba(ilocalization
box
p1321
(dp1322
g10
F313.247
sg11
F2095.854
sg12
F2050.063
sg13
F414.88
sg14
F0.3269330072071321
sba(ilocalization
box
p1323
(dp1324
g10
F701.1
sg11
F2390.431
sg12
F2296.526
sg13
F880.271
sg14
F0.3243279771631299
sba(ilocalization
box
p1325
(dp1326
g10
F290.114
sg11
F2324.891
sg12
F2283.944
sg13
F393.726
sg14
F0.32335645124915574
sba(ilocalization
box
p1327
(dp1328
g10
F44.263
sg11
F1924.535
sg12
F171.607
sg13
F1824.669
sg14
F0.6709907013534459
sba(ilocalization
box
p1329
(dp1330
g10
F254.418
sg11
F2256.142
sg12
F2192.59
sg13
F390.716
sg14
F0.3227103846286335
sba(ilocalization
box
p1331
(dp1332
g10
F755.682
sg11
F1975.899
sg12
F1908.85
sg13
F883.98
sg14
F0.3207799195076166
sba(ilocalization
box
p1333
(dp1334
g10
F95.73
sg11
F2592.0
sg12
F1699.025
sg13
F639.253
sg14
F0.3201390008009476
sba(ilocalization
box
p1335
(dp1336
g10
F1807.061
sg11
F2582.429
sg12
F2415.026
sg13
F1931.591
sg14
F0.39494846142460327
sba(ilocalization
box
p1337
(dp1338
g10
F9.862
sg11
F201.856
sg12
F112.721
sg13
F179.668
sg14
F0.3182239177904191
sba(ilocalization
box
p1339
(dp1340
g10
F752.707
sg11
F2083.222
sg12
F2021.543
sg13
F861.664
sg14
F0.38674102345450123
sba(ilocalization
box
p1341
(dp1342
g10
F1747.942
sg11
F1824.062
sg12
F1749.168
sg13
F1944.0
sg14
F0.31790585293156354
sba(ilocalization
box
p1343
(dp1344
g10
F263.715
sg11
F2052.516
sg12
F1996.571
sg13
F383.678
sg14
F0.37794749315816506
sba(ilocalization
box
p1345
(dp1346
g10
F41.215607696533205
sg11
F204.71547842407227
sg12
F131.16918884277345
sg13
F133.80223950195312
sg14
F5.2237638795253565
sba(ilocalization
box
p1347
(dp1348
g10
F844.887
sg11
F1978.912
sg12
F1910.138
sg13
F976.511
sg14
F0.37794749315816506
sba(ilocalization
box
p1349
(dp1350
g10
F1019.293
sg11
F2589.228
sg12
F1696.749
sg13
F1597.476
sg14
F0.3156882825125808
sba(ilocalization
box
p1351
(dp1352
g10
F52.966
sg11
F2592.0
sg12
F1672.92
sg13
F1156.247
sg14
F0.3147426368427819
sba(ilocalization
box
p1353
(dp1354
g10
F469.046
sg11
F2584.546
sg12
F2539.17
sg13
F581.884
sg14
F0.37493597534556133
sbatp1355
Rp1356
sS'stand'
p1357
g2
((lp1358
(ilocalization
box
p1359
(dp1360
g10
F212.386
sg11
F285.926
sg12
F226.186
sg13
F274.311
sg14
F0.388291085605873
sba(ilocalization
box
p1361
(dp1362
g10
F1766.761
sg11
F1493.818
sg12
F1488.792
sg13
F1829.907
sg14
F0.38674102345450123
sba(ilocalization
box
p1363
(dp1364
g10
F1806.9
sg11
F559.037
sg12
F554.847
sg13
F1851.755
sg14
F0.38635447573711773
sba(ilocalization
box
p1365
(dp1366
g10
F706.086
sg11
F1566.619
sg12
F238.067
sg13
F1858.298
sg14
F0.3840432893753353
sba(ilocalization
box
p1367
(dp1368
g10
F1894.981
sg11
F2557.042
sg12
F2568.46
sg13
F1944.0
sg14
F0.38289288597511206
sba(ilocalization
box
p1369
(dp1370
g10
F1885.128
sg11
F1327.924
sg12
F1331.458
sg13
F1943.55
sg14
F0.38212786547866506
sba(ilocalization
box
p1371
(dp1372
g10
F141.052
sg11
F1490.133
sg12
F485.308
sg13
F985.29
sg14
F0.38136437349418956
sba(ilocalization
box
p1373
(dp1374
g10
F458.3851171875
sg11
F2275.4893593750003
sg12
F1897.7495546874998
sg13
F879.87258203125
sg14
F3.5234791778235586
sba(ilocalization
box
p1375
(dp1376
g10
F128.277
sg11
F274.733
sg12
F221.825
sg13
F184.705
sg14
F0.38136437349418956
sba(ilocalization
box
p1377
(dp1378
g10
F623.659
sg11
F85.857
sg12
F42.632
sg13
F680.383
sg14
F0.38136437349418956
sba(ilocalization
box
p1379
(dp1380
g10
F296.361
sg11
F192.689
sg12
F123.875
sg13
F358.525
sg14
F0.38022199479853436
sba(ilocalization
box
p1381
(dp1382
g10
F1889.592
sg11
F1321.707
sg12
F1329.026
sg13
F1943.395
sg14
F0.3798419628513787
sba(ilocalization
box
p1383
(dp1384
g10
F1158.122
sg11
F2577.705
sg12
F2528.867
sg13
F1259.089
sg14
F0.41727909019869114
sba(ilocalization
box
p1385
(dp1386
g10
F1195.945
sg11
F1325.715
sg12
F796.754
sg13
F1752.181
sg14
F0.4118895698108276
sba(ilocalization
box
p1387
(dp1388
g10
F209.417
sg11
F2592.0
sg12
F760.877
sg13
F1944.0
sg14
F0.3798419628513787
sba(ilocalization
box
p1389
(dp1390
g10
F1136.334
sg11
F232.585
sg12
F192.502
sg13
F1214.371
sg14
F0.37794749315816506
sba(ilocalization
box
p1391
(dp1392
g10
F351.651
sg11
F112.39
sg12
F63.411
sg13
F407.476
sg14
F0.37531109885139957
sba(ilocalization
box
p1393
(dp1394
g10
F1629.829
sg11
F2592.0
sg12
F2337.263
sg13
F1944.0
sg14
F0.405351778496654
sba(ilocalization
box
p1395
(dp1396
g10
F192.523
sg11
F261.441
sg12
F184.315
sg13
F269.399
sg14
F0.3745612267757298
sba(ilocalization
box
p1397
(dp1398
g10
F1617.93
sg11
F41.588
sg12
F36.825
sg13
F1654.31
sg14
F0.3730659743671134
sba(ilocalization
box
p1399
(dp1400
g10
F747.554
sg11
F70.215
sg12
F16.836
sg13
F812.541
sg14
F0.39653141907499284
sba(ilocalization
box
p1401
(dp1402
g10
F58.329
sg11
F84.943
sg12
F24.053
sg13
F118.933
sg14
F0.3726930948635714
sba(ilocalization
box
p1403
(dp1404
g10
F1745.518
sg11
F61.796
sg12
F37.893
sg13
F1802.409
sg14
F0.3957391487712367
sba(ilocalization
box
p1405
(dp1406
g10
F1559.846
sg11
F1766.988
sg12
F1768.284
sg13
F1616.793
sg14
F0.3726930948635714
sba(ilocalization
box
p1407
(dp1408
g10
F1435.551
sg11
F73.648
sg12
F30.977
sg13
F1499.037
sg14
F0.369723444544059
sba(ilocalization
box
p1409
(dp1410
g10
F1111.585
sg11
F142.689
sg12
F137.377
sg13
F1158.225
sg14
F0.39297864775542996
sba(ilocalization
box
p1411
(dp1412
g10
F1248.907
sg11
F1622.307
sg12
F1575.207
sg13
F1340.507
sg14
F0.39140987280600653
sba(ilocalization
box
p1413
(dp1414
g10
F1105.152
sg11
F379.021
sg12
F341.024
sg13
F1173.268
sg14
F0.39101865857291823
sba(ilocalization
box
p1415
(dp1416
g10
F253.419
sg11
F1490.017
sg12
F1438.165
sg13
F352.016
sg14
F0.38867957090175304
sbatp1417
Rp1418
sS'pillow'
p1419
g2
((lp1420
tp1421
Rp1422
sS'road'
p1423
g2
((lp1424
tp1425
Rp1426
sS'wall'
p1427
g2
((lp1428
(ilocalization
box
p1429
(dp1430
g10
F1620.756
sg11
F1195.705
sg12
F1027.817
sg13
F1919.894
sg14
F0.43779697651695965
sba(ilocalization
box
p1431
(dp1432
g10
F1643.275
sg11
F1662.436
sg12
F1160.394
sg13
F1930.783
sg14
F0.4369222575744412
sba(ilocalization
box
p1433
(dp1434
g10
F1694.148
sg11
F802.973
sg12
F792.115
sg13
F1827.89
sg14
F0.4360492863215356
sba(ilocalization
box
p1435
(dp1436
g10
F1845.557
sg11
F2207.868
sg12
F2025.712
sg13
F1912.874
sg14
F0.43257480847288665
sba(ilocalization
box
p1437
(dp1438
g10
F743.901
sg11
F2572.558
sg12
F2523.081
sg13
F854.347
sg14
F0.43127902868897855
sba(ilocalization
box
p1439
(dp1440
g10
F1705.797
sg11
F591.416
sg12
F412.708
sg13
F1810.848
sg14
F0.42528319108227414
sba(ilocalization
box
p1441
(dp1442
g10
F1699.69
sg11
F2205.658
sg12
F2023.008
sg13
F1762.674
sg14
F0.42063071153031245
sba(ilocalization
box
p1443
(dp1444
g10
F1751.544
sg11
F867.806
sg12
F697.178
sg13
F1825.519
sg14
F0.41811448349391933
sba(ilocalization
box
p1445
(dp1446
g10
F1761.21
sg11
F674.969
sg12
F497.958
sg13
F1842.003
sg14
F0.4147829116815814
sba(ilocalization
box
p1447
(dp1448
g10
F1.0
sg11
F2546.608
sg12
F2438.985
sg13
F24.197
sg14
F0.41354042760451515
sba(ilocalization
box
p1449
(dp1450
g10
F1721.265
sg11
F1998.262
sg12
F1829.461
sg13
F1783.065
sg14
F0.4005166260908188
sba(ilocalization
box
p1451
(dp1452
g10
F1528.538
sg11
F14.218
sg12
F34.821
sg13
F1773.472
sg14
F0.40011630965630496
sba(ilocalization
box
p1453
(dp1454
g10
F1350.207
sg11
F2545.37
sg12
F2546.52
sg13
F1680.074
sg14
F0.389457707921197
sba(ilocalization
box
p1455
(dp1456
g10
F1746.655
sg11
F2277.474
sg12
F2100.022
sg13
F1803.742
sg14
F0.38596831437424217
sba(ilocalization
box
p1457
(dp1458
g10
F1024.922
sg11
F2568.525
sg12
F2526.161
sg13
F1142.871
sg14
F0.3851971491677552
sba(ilocalization
box
p1459
(dp1460
g10
F818.268
sg11
F2152.961
sg12
F2160.27
sg13
F1021.879
sg14
F0.3836594380436134
sba(ilocalization
box
p1461
(dp1462
g10
F1737.925
sg11
F959.937
sg12
F778.041
sg13
F1822.394
sg14
F0.38060240696771647
sba(ilocalization
box
p1463
(dp1464
g10
F1617.141
sg11
F2544.316
sg12
F2587.145
sg13
F1898.073
sg14
F0.38022199479853436
sba(ilocalization
box
p1465
(dp1466
g10
F1366.025
sg11
F576.634
sg12
F595.679
sg13
F1595.323
sg14
F0.37946231074621756
sba(ilocalization
box
p1467
(dp1468
g10
F1775.248
sg11
F1109.854
sg12
F933.398
sg13
F1854.156
sg14
F0.37681534974292086
sba(ilocalization
box
p1469
(dp1470
g10
F1846.367
sg11
F1046.611
sg12
F867.52
sg13
F1927.95
sg14
F0.37531109885139957
sba(ilocalization
box
p1471
(dp1472
g10
F1143.245
sg11
F1757.291
sg12
F1775.067
sg13
F1382.411
sg14
F0.369353905899632
sba(ilocalization
box
p1473
(dp1474
g10
F1661.087
sg11
F2173.697
sg12
F2149.376
sg13
F1794.003
sg14
F0.3664108625221595
sba(ilocalization
box
p1475
(dp1476
g10
F1614.837
sg11
F2083.25
sg12
F2042.714
sg13
F1770.656
sg14
F0.36312795998045994
sba(ilocalization
box
p1477
(dp1478
g10
F1461.104
sg11
F2548.842
sg12
F2582.36
sg13
F1724.964
sg14
F0.36131685172433853
sba(ilocalization
box
p1479
(dp1480
g10
F1779.543
sg11
F599.464
sg12
F400.181
sg13
F1891.624
sg14
F0.3587964654059516
sba(ilocalization
box
p1481
(dp1482
g10
F1715.271
sg11
F2541.44
sg12
F2580.719
sg13
F1944.0
sg14
F0.3552263809249515
sba(ilocalization
box
p1483
(dp1484
g10
F886.033
sg11
F2426.273
sg12
F2431.973
sg13
F1099.365
sg14
F0.35416229870357024
sba(ilocalization
box
p1485
(dp1486
g10
F1003.999
sg11
F1742.308
sg12
F1743.326
sg13
F1253.216
sg14
F0.35239590686961875
sba(ilocalization
box
p1487
(dp1488
g10
F1618.838
sg11
F2541.265
sg12
F2553.925
sg13
F1944.0
sg14
F0.35063832495169295
sba(ilocalization
box
p1489
(dp1490
g10
F211.757
sg11
F2582.009
sg12
F2510.968
sg13
F306.053
sg14
F0.3502878618874786
sba(ilocalization
box
p1491
(dp1492
g10
F1032.462
sg11
F20.895
sg12
F24.554
sg13
F1232.156
sg14
F0.3495879862726104
sba(ilocalization
box
p1493
(dp1494
g10
F1668.33
sg11
F2102.652
sg12
F2053.635
sg13
F1846.684
sg14
F0.3495879862726104
sba(ilocalization
box
p1495
(dp1496
g10
F1836.973
sg11
F2088.401
sg12
F1870.691
sg13
F1921.887
sg14
F0.3492385730220808
sba(ilocalization
box
p1497
(dp1498
g10
F1432.449
sg11
F2592.0
sg12
F1823.91
sg13
F1891.528
sg14
F0.348540793887764
sba(ilocalization
box
p1499
(dp1500
g10
F1334.336
sg11
F1392.464
sg12
F1399.03
sg13
F1615.133
sg14
F0.3464558103300574
sba(ilocalization
box
p1501
(dp1502
g10
F683.392
sg11
F2574.257
sg12
F2520.994
sg13
F791.478
sg14
F0.3447278547672202
sba(ilocalization
box
p1503
(dp1504
g10
F1665.933
sg11
F2547.598
sg12
F2569.716
sg13
F1944.0
sg14
F0.3433516974975665
sba(ilocalization
box
p1505
(dp1506
g10
F1225.526
sg11
F1137.652
sg12
F1147.364
sg13
F1460.729
sg14
F0.34300851741870664
sba(ilocalization
box
p1507
(dp1508
g10
F775.379
sg11
F2567.473
sg12
F2523.913
sg13
F1074.916
sg14
F0.33925609986047195
sba(ilocalization
box
p1509
(dp1510
g10
F1145.759
sg11
F1759.438
sg12
F1769.058
sg13
F1384.504
sg14
F0.33756405300340836
sba(ilocalization
box
p1511
(dp1512
g10
F1132.147
sg11
F1758.146
sg12
F1769.841
sg13
F1381.052
sg14
F0.33756405300340836
sba(ilocalization
box
p1513
(dp1514
g10
F1687.187
sg11
F768.536
sg12
F733.52
sg13
F1843.955
sg14
F0.3348743138811302
sba(ilocalization
box
p1515
(dp1516
g10
F1146.175
sg11
F2578.663
sg12
F2493.972
sg13
F1318.444
sg14
F0.3345396069486076
sba(ilocalization
box
p1517
(dp1518
g10
F1752.677
sg11
F836.1
sg12
F619.546
sg13
F1862.404
sg14
F0.3338711963680944
sba(ilocalization
box
p1519
(dp1520
g10
F118.195
sg11
F2578.645
sg12
F2512.84
sg13
F209.802
sg14
F0.3302187385548933
sba(ilocalization
box
p1521
(dp1522
g10
F756.91
sg11
F2054.196
sg12
F2055.845
sg13
F955.364
sg14
F0.3275875275236895
sba(ilocalization
box
p1523
(dp1524
g10
F709.601
sg11
F2570.336
sg12
F2573.72
sg13
F913.758
sg14
F0.32562788715856034
sba(ilocalization
box
p1525
(dp1526
g10
F1607.33
sg11
F2543.293
sg12
F2568.389
sg13
F1929.06
sg14
F0.32303325642225295
sba(ilocalization
box
p1527
(dp1528
g10
F1326.583
sg11
F1806.507
sg12
F1828.763
sg13
F1571.354
sg14
F0.31600412869186256
sba(ilocalization
box
p1529
(dp1530
g10
F1639.016
sg11
F478.355
sg12
F90.805
sg13
F1856.68
sg14
F0.3147426368427819
sba(ilocalization
box
p1531
(dp1532
g10
F1124.955
sg11
F1763.218
sg12
F1765.21
sg13
F1376.883
sg14
F0.312547131618141
sba(ilocalization
box
p1533
(dp1534
g10
F1663.444
sg11
F2545.226
sg12
F2565.268
sg13
F1944.0
sg14
F0.31036694126548503
sba(ilocalization
box
p1535
(dp1536
g10
F2.771
sg11
F1394.076
sg12
F399.796
sg13
F1231.615
sg14
F8.158007824379352
sba(ilocalization
box
p1537
(dp1538
g10
F13.178
sg11
F2544.995
sg12
F1649.252
sg13
F1146.584
sg14
F7.736891562315574
sba(ilocalization
box
p1539
(dp1540
g10
F10.851
sg11
F261.578
sg12
F6.506
sg13
F700.109
sg14
F7.706005808754427
sba(ilocalization
box
p1541
(dp1542
g10
F11.43
sg11
F2532.826
sg12
F1144.836
sg13
F1671.198
sg14
F5.795026212051292
sba(ilocalization
box
p1543
(dp1544
g10
F1.0
sg11
F1470.185
sg12
F14.926
sg13
F1730.919
sg14
F3.721028096020821
sba(ilocalization
box
p1545
(dp1546
g10
F1552.432
sg11
F2557.196
sg12
F2494.955
sg13
F1742.084
sg14
F2.7787467035811972
sba(ilocalization
box
p1547
(dp1548
g10
F1563.668
sg11
F2563.832
sg12
F2453.993
sg13
F1807.731
sg14
F1.9251425173763628
sba(ilocalization
box
p1549
(dp1550
g10
F1487.531
sg11
F2572.133
sg12
F2333.516
sg13
F1896.871
sg14
F1.2763443304894546
sba(ilocalization
box
p1551
(dp1552
g10
F1095.638
sg11
F2566.987
sg12
F2501.721
sg13
F1247.578
sg14
F1.1491241000036052
sba(ilocalization
box
p1553
(dp1554
g10
F707.84
sg11
F2565.023
sg12
F2564.471
sg13
F915.046
sg14
F1.0586558103955002
sba(ilocalization
box
p1555
(dp1556
g10
F1645.651
sg11
F1859.155
sg12
F1818.106
sg13
F1799.903
sg14
F1.0140984589384923
sba(ilocalization
box
p1557
(dp1558
g10
F1657.98
sg11
F88.092
sg12
F31.613
sg13
F1835.261
sg14
F1.0010005001667084
sba(ilocalization
box
p1559
(dp1560
g10
F1599.324
sg11
F1637.814
sg12
F1589.608
sg13
F1764.981
sg14
F0.8851483685026271
sba(ilocalization
box
p1561
(dp1562
g10
F1701.404
sg11
F1897.998
sg12
F1700.132
sg13
F1783.907
sg14
F0.8336013404157353
sba(ilocalization
box
p1563
(dp1564
g10
F1.0
sg11
F2576.507
sg12
F2480.201
sg13
F15.677
sg14
F0.8179124315538594
sba(ilocalization
box
p1565
(dp1566
g10
F597.244
sg11
F2574.508
sg12
F2520.201
sg13
F698.538
sg14
F0.8089646975664998
sba(ilocalization
box
p1567
(dp1568
g10
F1651.06
sg11
F187.158
sg12
F134.06
sg13
F1821.167
sg14
F0.8065414401773269
sba(ilocalization
box
p1569
(dp1570
g10
F1765.142
sg11
F1457.044
sg12
F1431.576
sg13
F1910.415
sg14
F0.678412343264104
sba(ilocalization
box
p1571
(dp1572
g10
F1351.349
sg11
F2576.645
sg12
F2198.673
sg13
F1919.479
sg14
F0.6696500610379346
sba(ilocalization
box
p1573
(dp1574
g10
F1673.22
sg11
F1907.713
sg12
F1889.902
sg13
F1804.123
sg14
F0.6689807456903467
sba(ilocalization
box
p1575
(dp1576
g10
F1727.24
sg11
F421.718
sg12
F99.905
sg13
F1928.634
sg14
F0.6676441212689289
sba(ilocalization
box
p1577
(dp1578
g10
F1776.717
sg11
F1902.779
sg12
F1863.601
sg13
F1936.97
sg14
F0.6382660986937688
sba(ilocalization
box
p1579
(dp1580
g10
F247.184
sg11
F2579.97
sg12
F2535.511
sg13
F463.268
sg14
F0.6107912690658842
sba(ilocalization
box
p1581
(dp1582
g10
F1527.435
sg11
F1618.425
sg12
F1389.937
sg13
F1922.562
sg14
F0.6059244322171875
sba(ilocalization
box
p1583
(dp1584
g10
F955.791
sg11
F20.522
sg12
F22.45
sg13
F1139.709
sg14
F0.596903392674358
sba(ilocalization
box
p1585
(dp1586
g10
F705.957
sg11
F2563.108
sg12
F2557.342
sg13
F917.052
sg14
F0.5886049696783552
sba(ilocalization
box
p1587
(dp1588
g10
F1778.978
sg11
F148.542
sg12
F1.0
sg13
F1862.059
sg14
F0.5810026273636019
sba(ilocalization
box
p1589
(dp1590
g10
F1.04
sg11
F2586.204
sg12
F2506.04
sg13
F94.185
sg14
F0.5627048688069557
sba(ilocalization
box
p1591
(dp1592
g10
F1718.885
sg11
F2538.82
sg12
F2582.595
sg13
F1944.0
sg14
F0.5543272847345071
sba(ilocalization
box
p1593
(dp1594
g10
F1822.253
sg11
F1113.8
sg12
F939.037
sg13
F1900.971
sg14
F0.5482630987723047
sba(ilocalization
box
p1595
(dp1596
g10
F1697.046
sg11
F1395.583
sg12
F1177.606
sg13
F1807.421
sg14
F0.5471676683703055
sba(ilocalization
box
p1597
(dp1598
g10
F1635.346
sg11
F1878.154
sg12
F1414.207
sg13
F1934.605
sg14
F0.5325918010068972
sba(ilocalization
box
p1599
(dp1600
g10
F414.22
sg11
F2574.968
sg12
F2540.63
sg13
F648.963
sg14
F0.5315276818787179
sba(ilocalization
box
p1601
(dp1602
g10
F891.496
sg11
F2569.251
sg12
F2526.415
sg13
F1005.584
sg14
F0.5241381418083354
sba(ilocalization
box
p1603
(dp1604
g10
F1622.281
sg11
F136.136
sg12
F29.604
sg13
F1858.644
sg14
F0.5210027286033344
sba(ilocalization
box
p1605
(dp1606
g10
F1846.225
sg11
F159.953
sg12
F1.0
sg13
F1938.983
sg14
F0.5061106285973052
sba(ilocalization
box
p1607
(dp1608
g10
F1674.397
sg11
F710.018
sg12
F507.216
sg13
F1789.641
sg14
F0.499573772053545
sba(ilocalization
box
p1609
(dp1610
g10
F1850.731
sg11
F1996.854
sg12
F1796.028
sg13
F1922.086
sg14
F0.48335688782114633
sba(ilocalization
box
p1611
(dp1612
g10
F1216.565
sg11
F2565.835
sg12
F2505.32
sg13
F1373.709
sg14
F0.4780690982163776
sba(ilocalization
box
p1613
(dp1614
g10
F1341.059
sg11
F1388.702
sg12
F1397.441
sg13
F1616.239
sg14
F0.46954083904279925
sba(ilocalization
box
p1615
(dp1616
g10
F1700.768
sg11
F1123.153
sg12
F957.0
sg13
F1769.302
sg14
F0.4616261105831047
sba(ilocalization
box
p1617
(dp1618
g10
F1584.069
sg11
F1451.621
sg12
F1298.226
sg13
F1887.944
sg14
F0.4597832942305652
sba(ilocalization
box
p1619
(dp1620
g10
F820.677
sg11
F2156.962
sg12
F2159.704
sg13
F1033.954
sg14
F0.4561197017856392
sba(ilocalization
box
p1621
(dp1622
g10
F304.584
sg11
F2591.121
sg12
F2525.787
sg13
F609.812
sg14
F0.45475339316794017
sba(ilocalization
box
p1623
(dp1624
g10
F1806.388
sg11
F2002.843
sg12
F1807.906
sg13
F1887.349
sg14
F0.4533911773338492
sba(ilocalization
box
p1625
(dp1626
g10
F1327.691
sg11
F1797.76
sg12
F1820.275
sg13
F1572.063
sg14
F0.4515812349225922
sba(ilocalization
box
p1627
(dp1628
g10
F1578.723
sg11
F94.781
sg12
F102.78
sg13
F1875.911
sg14
F0.448879859742717
sba(ilocalization
box
p1629
(dp1630
g10
F1596.016
sg11
F202.439
sg12
F25.537
sg13
F1897.568
sg14
F0.44619464428627154
sbatp1631
Rp1632
sS'armchair'
p1633
g2
((lp1634
(ilocalization
box
p1635
(dp1636
g10
F1747.433
sg11
F110.298
sg12
F54.227
sg13
F1893.869
sg14
F0.3495879862726104
sba(ilocalization
box
p1637
(dp1638
g10
F1362.447
sg11
F2299.4
sg12
F2156.107
sg13
F1487.235
sg14
F0.36385494264075363
sba(ilocalization
box
p1639
(dp1640
g10
F1914.161
sg11
F2423.411
sg12
F2363.972
sg13
F1924.887
sg14
F0.34163922376206945
sba(ilocalization
box
p1641
(dp1642
g10
F1657.723
sg11
F1702.822
sg12
F1627.279
sg13
F1679.717
sg14
F0.3664108625221595
sba(ilocalization
box
p1643
(dp1644
g10
F1470.624
sg11
F1936.626
sg12
F1872.816
sg13
F1495.921
sg14
F0.37046363137324734
sba(ilocalization
box
p1645
(dp1646
g10
F1836.332
sg11
F1888.311
sg12
F1814.488
sg13
F1853.269
sg14
F0.3587964654059516
sba(ilocalization
box
p1647
(dp1648
g10
F886.017
sg11
F2145.638
sg12
F200.729
sg13
F1944.0
sg14
F0.35665013205257223
sba(ilocalization
box
p1649
(dp1650
g10
F725.544
sg11
F246.227
sg12
F103.913
sg13
F821.774
sg14
F0.35239590686961875
sba(ilocalization
box
p1651
(dp1652
g10
F242.557
sg11
F116.509
sg12
F23.421
sg13
F322.922
sg14
F0.3605949401730783
sba(ilocalization
box
p1653
(dp1654
g10
F795.235
sg11
F635.097
sg12
F528.149
sg13
F878.83
sg14
F0.3595147764083289
sba(ilocalization
box
p1655
(dp1656
g10
F768.691
sg11
F525.152
sg12
F424.948
sg13
F836.668
sg14
F0.34749673837241524
sba(ilocalization
box
p1657
(dp1658
g10
F1598.779
sg11
F2574.656
sg12
F2525.097
sg13
F1706.209
sg14
F0.3447278547672202
sba(ilocalization
box
p1659
(dp1660
g10
F1079.561
sg11
F1520.454
sg12
F865.447
sg13
F1808.438
sg14
F0.39376539153247
sba(ilocalization
box
p1661
(dp1662
g10
F305.21
sg11
F138.599
sg12
F27.494
sg13
F400.732
sg14
F0.3464558103300574
sba(ilocalization
box
p1663
(dp1664
g10
F541.392
sg11
F839.036
sg12
F225.394
sg13
F1017.346
sg14
F0.34369522092815236
sba(ilocalization
box
p1665
(dp1666
g10
F1537.476
sg11
F200.215
sg12
F63.331
sg13
F1610.116
sg14
F0.3527484790331891
sba(ilocalization
box
p1667
(dp1668
g10
F963.035
sg11
F2511.937
sg12
F1350.13
sg13
F1810.543
sg14
F0.36131685172433853
sba(ilocalization
box
p1669
(dp1670
g10
F807.276
sg11
F720.702
sg12
F450.724
sg13
F1027.634
sg14
F0.3591554413294046
sba(ilocalization
box
p1671
(dp1672
g10
F1879.785
sg11
F2341.311
sg12
F2237.63
sg13
F1926.836
sg14
F0.3516918193780669
sba(ilocalization
box
p1673
(dp1674
g10
F1718.05
sg11
F256.659
sg12
F136.653
sg13
F1768.464
sg14
F0.3492385730220808
sba(ilocalization
box
p1675
(dp1676
g10
F602.356
sg11
F109.816
sg12
F21.698
sg13
F658.657
sg14
F0.34888950901015336
sba(ilocalization
box
p1677
(dp1678
g10
F765.788
sg11
F590.254
sg12
F503.666
sg13
F822.773
sg14
F0.36531327713586137
sba(ilocalization
box
p1679
(dp1680
g10
F592.635
sg11
F445.773
sg12
F375.382
sg13
F635.953
sg14
F0.3492385730220808
sba(ilocalization
box
p1681
(dp1682
g10
F1702.827
sg11
F590.794
sg12
F499.052
sg13
F1755.533
sg14
F0.37531109885139957
sba(ilocalization
box
p1683
(dp1684
g10
F186.445
sg11
F108.085
sg12
F32.497
sg13
F239.737
sg14
F0.3499377491111553
sba(ilocalization
box
p1685
(dp1686
g10
F594.900764265418
sg11
F2383.012689157486
sg12
F2206.963243690491
sg13
F807.1296170511246
sg14
F8.5234951995542
sba(ilocalization
box
p1687
(dp1688
g10
F1584.462
sg11
F2571.022
sg12
F2468.744
sg13
F1644.406
sg14
F0.35063832495169295
sba(ilocalization
box
p1689
(dp1690
g10
F1189.753
sg11
F188.753
sg12
F94.672
sg13
F1231.878
sg14
F0.35416229870357024
sba(ilocalization
box
p1691
(dp1692
g10
F1429.101
sg11
F344.882
sg12
F109.55
sg13
F1576.095
sg14
F0.3573641460927129
sba(ilocalization
box
p1693
(dp1694
g10
F1830.228
sg11
F2339.678
sg12
F2243.061
sg13
F1914.01
sg14
F0.3406158419310661
sba(ilocalization
box
p1695
(dp1696
g10
F230.659
sg11
F245.99
sg12
F195.266
sg13
F303.916
sg14
F0.35063832495169295
sba(ilocalization
box
p1697
(dp1698
g10
F1887.836
sg11
F2429.78
sg12
F2337.297
sg13
F1927.539
sg14
F0.3406158419310661
sba(ilocalization
box
p1699
(dp1700
g10
F399.47
sg11
F1954.551
sg12
F877.623
sg13
F1258.421
sg14
F0.3516918193780669
sbatp1701
Rp1702
sS'pot'
p1703
g2
((lp1704
tp1705
Rp1706
sS'airplane2'
p1707
g2
((lp1708
(ilocalization
box
p1709
(dp1710
g10
F1514.679625
sg11
F545.7885
sg12
F277.479
sg13
F1544.390875
sg14
F1.4302412449345348
sba(ilocalization
box
p1711
(dp1712
g10
F20.825
sg11
F2267.347
sg12
F1961.087
sg13
F95.941
sg14
F0.35665013205257223
sba(ilocalization
box
p1713
(dp1714
g10
F1296.466
sg11
F2487.879
sg12
F2030.662
sg13
F1344.656
sg14
F0.3675117456086936
sba(ilocalization
box
p1715
(dp1716
g10
F640.188
sg11
F2592.0
sg12
F2346.645
sg13
F674.107
sg14
F0.3634912695649568
sba(ilocalization
box
p1717
(dp1718
g10
F670.588
sg11
F1754.069
sg12
F1437.846
sg13
F700.184
sg14
F0.3552263809249515
sba(ilocalization
box
p1719
(dp1720
g10
F45.71
sg11
F1154.284
sg12
F703.491
sg13
F171.606
sg14
F0.3527484790331891
sba(ilocalization
box
p1721
(dp1722
g10
F713.846
sg11
F318.033
sg12
F34.763
sg13
F793.722
sg14
F0.37568659766836787
sbatp1723
Rp1724
sS'table'
p1725
g2
((lp1726
(ilocalization
box
p1727
(dp1728
g10
F1057.278
sg11
F2572.989
sg12
F1749.126
sg13
F1588.558
sg14
F0.41106661390143395
sba(ilocalization
box
p1729
(dp1730
g10
F638.352
sg11
F329.072
sg12
F240.259
sg13
F689.201
sg14
F0.410245302259044
sba(ilocalization
box
p1731
(dp1732
g10
F490.753
sg11
F2592.0
sg12
F248.177
sg13
F1944.0
sg14
F0.40983526201107895
sba(ilocalization
box
p1733
(dp1734
g10
F212.448
sg11
F2585.041
sg12
F2476.149
sg13
F256.889
sg14
F0.3836594380436134
sba(ilocalization
box
p1735
(dp1736
g10
F404.768
sg11
F830.262
sg12
F743.593
sg13
F459.059
sg14
F0.37794749315816506
sba(ilocalization
box
p1737
(dp1738
g10
F257.262
sg11
F2268.052
sg12
F2189.477
sg13
F325.277
sg14
F0.3723205880531552
sba(ilocalization
box
p1739
(dp1740
g10
F170.336
sg11
F223.536
sg12
F149.225
sg13
F247.454
sg14
F0.3715766910220457
sba(ilocalization
box
p1741
(dp1742
g10
F110.157
sg11
F2592.0
sg12
F2518.36
sg13
F171.286
sg14
F0.369723444544059
sba(ilocalization
box
p1743
(dp1744
g10
F264.017
sg11
F566.374
sg12
F481.939
sg13
F340.12
sg14
F0.3660446348040154
sba(ilocalization
box
p1745
(dp1746
g10
F122.955
sg11
F207.83
sg12
F148.127
sg13
F178.265
sg14
F0.3660446348040154
sba(ilocalization
box
p1747
(dp1748
g10
F224.531
sg11
F2274.451
sg12
F2160.846
sg13
F271.484
sg14
F0.3660446348040154
sba(ilocalization
box
p1749
(dp1750
g10
F218.493
sg11
F2305.427
sg12
F2159.948
sg13
F322.029
sg14
F0.36276501352395324
sba(ilocalization
box
p1751
(dp1752
g10
F103.787
sg11
F1157.374
sg12
F1072.062
sg13
F180.516
sg14
F0.3624024298324904
sba(ilocalization
box
p1753
(dp1754
g10
F281.032
sg11
F85.744
sg12
F1.0
sg13
F361.466
sg14
F0.3624024298324904
sba(ilocalization
box
p1755
(dp1756
g10
F54.506
sg11
F59.64
sg12
F1.0
sg13
F111.86
sg14
F0.3616783492947233
sba(ilocalization
box
p1757
(dp1758
g10
F444.029
sg11
F136.275
sg12
F56.341
sg13
F520.762
sg14
F0.36095571547083566
sba(ilocalization
box
p1759
(dp1760
g10
F88.613
sg11
F2222.6
sg12
F2128.768
sg13
F169.0
sg14
F0.3605949401730783
sba(ilocalization
box
p1761
(dp1762
g10
F239.326
sg11
F70.084
sg12
F4.225
sg13
F303.295
sg14
F0.3605949401730783
sba(ilocalization
box
p1763
(dp1764
g10
F67.028
sg11
F2549.669
sg12
F2477.933
sg13
F126.673
sg14
F0.35987447100205955
sba(ilocalization
box
p1765
(dp1766
g10
F260.203
sg11
F1020.1
sg12
F913.112
sg13
F329.412
sg14
F0.35987447100205955
sba(ilocalization
box
p1767
(dp1768
g10
F117.48
sg11
F826.125
sg12
F754.88
sg13
F186.838
sg14
F0.3595147764083289
sba(ilocalization
box
p1769
(dp1770
g10
F2.805
sg11
F2075.305
sg12
F1735.897
sg13
F322.65
sg14
F0.3595147764083289
sba(ilocalization
box
p1771
(dp1772
g10
F138.771
sg11
F1339.513
sg12
F1237.535
sg13
F234.168
sg14
F0.3595147764083289
sba(ilocalization
box
p1773
(dp1774
g10
F625.351
sg11
F305.85
sg12
F131.648
sg13
F676.171
sg14
F0.3591554413294046
sba(ilocalization
box
p1775
(dp1776
g10
F123.009
sg11
F120.831
sg12
F56.211
sg13
F182.974
sg14
F0.3577216889804542
sba(ilocalization
box
p1777
(dp1778
g10
F429.023
sg11
F1165.441
sg12
F1040.598
sg13
F546.532
sg14
F0.35593754461343535
sba(ilocalization
box
p1779
(dp1780
g10
F124.647
sg11
F753.665
sg12
F664.534
sg13
F205.65
sg14
F0.35558178497828613
sba(ilocalization
box
p1781
(dp1782
g10
F221.539
sg11
F1247.755
sg12
F1152.121
sg13
F311.617
sg14
F0.35416229870357024
sba(ilocalization
box
p1783
(dp1784
g10
F637.767
sg11
F206.987
sg12
F1.0
sg13
F701.381
sg14
F0.35416229870357024
sba(ilocalization
box
p1785
(dp1786
g10
F432.305
sg11
F967.584
sg12
F897.19
sg13
F496.385
sg14
F0.35416229870357024
sba(ilocalization
box
p1787
(dp1788
g10
F292.573
sg11
F104.979
sg12
F1.0
sg13
F408.89
sg14
F0.35380831342700375
sba(ilocalization
box
p1789
(dp1790
g10
F183.55
sg11
F2590.849
sg12
F2441.507
sg13
F240.99
sg14
F0.35380831342700375
sba(ilocalization
box
p1791
(dp1792
g10
F133.286
sg11
F159.493
sg12
F47.691
sg13
F238.003
sg14
F0.35345468195878016
sba(ilocalization
box
p1793
(dp1794
g10
F411.694
sg11
F697.793
sg12
F626.062
sg13
F483.138
sg14
F0.35239590686961875
sba(ilocalization
box
p1795
(dp1796
g10
F73.225
sg11
F1155.836
sg12
F994.308
sg13
F224.669
sg14
F0.35239590686961875
sba(ilocalization
box
p1797
(dp1798
g10
F418.76
sg11
F1631.659
sg12
F1455.868
sg13
F478.606
sg14
F0.3520436871019846
sba(ilocalization
box
p1799
(dp1800
g10
F169.31
sg11
F681.117
sg12
F599.465
sg13
F246.151
sg14
F0.3520436871019846
sba(ilocalization
box
p1801
(dp1802
g10
F301.709
sg11
F2316.38
sg12
F2246.313
sg13
F360.189
sg14
F0.35098913865426146
sba(ilocalization
box
p1803
(dp1804
g10
F311.978
sg11
F1170.874
sg12
F1098.26
sg13
F378.547
sg14
F0.3502878618874786
sba(ilocalization
box
p1805
(dp1806
g10
F143.223
sg11
F1731.084
sg12
F1665.813
sg13
F200.521
sg14
F0.3502878618874786
sba(ilocalization
box
p1807
(dp1808
g10
F358.322
sg11
F1894.16
sg12
F1824.593
sg13
F417.649
sg14
F0.3499377491111553
sba(ilocalization
box
p1809
(dp1810
g10
F61.349
sg11
F246.458
sg12
F179.455
sg13
F126.414
sg14
F0.3495879862726104
sba(ilocalization
box
p1811
(dp1812
g10
F269.986
sg11
F2340.827
sg12
F2267.572
sg13
F329.557
sg14
F0.3495879862726104
sba(ilocalization
box
p1813
(dp1814
g10
F166.163
sg11
F1674.677
sg12
F1600.244
sg13
F235.05
sg14
F0.3492385730220808
sba(ilocalization
box
p1815
(dp1816
g10
F175.624
sg11
F2458.774
sg12
F2331.53
sg13
F229.888
sg14
F0.34888950901015336
sba(ilocalization
box
p1817
(dp1818
g10
F240.013
sg11
F110.535
sg12
F42.97
sg13
F304.655
sg14
F0.3481924273061976
sba(ilocalization
box
p1819
(dp1820
g10
F216.384
sg11
F700.056
sg12
F639.724
sg13
F271.837
sg14
F0.3481924273061976
sba(ilocalization
box
p1821
(dp1822
g10
F704.222
sg11
F53.381
sg12
F1.0
sg13
F764.587
sg14
F0.34749673837241524
sba(ilocalization
box
p1823
(dp1824
g10
F192.572
sg11
F2403.67
sg12
F2285.473
sg13
F297.406
sg14
F0.34749673837241524
sba(ilocalization
box
p1825
(dp1826
g10
F324.871
sg11
F503.6
sg12
F431.266
sg13
F394.616
sg14
F0.3471494153245103
sba(ilocalization
box
p1827
(dp1828
g10
F52.612
sg11
F1732.39
sg12
F1650.4
sg13
F125.1
sg14
F0.3471494153245103
sba(ilocalization
box
p1829
(dp1830
g10
F261.129
sg11
F2459.489
sg12
F2388.294
sg13
F321.122
sg14
F0.34680243942604977
sba(ilocalization
box
p1831
(dp1832
g10
F257.654
sg11
F1606.894
sg12
F1537.744
sg13
F320.372
sg14
F0.3464558103300574
sba(ilocalization
box
p1833
(dp1834
g10
F409.764
sg11
F2217.571
sg12
F2142.923
sg13
F473.947
sg14
F0.3464558103300574
sba(ilocalization
box
p1835
(dp1836
g10
F5.533
sg11
F2583.786
sg12
F2488.195
sg13
F74.341
sg14
F0.3461095276899044
sba(ilocalization
box
p1837
(dp1838
g10
F78.728
sg11
F1756.705
sg12
F1635.507
sg13
F154.285
sg14
F0.34576359115930777
sba(ilocalization
box
p1839
(dp1840
g10
F221.767
sg11
F559.788
sg12
F498.835
sg13
F282.288
sg14
F0.34576359115930777
sba(ilocalization
box
p1841
(dp1842
g10
F432.096
sg11
F1298.885
sg12
F1198.354
sg13
F531.754
sg14
F0.34576359115930777
sba(ilocalization
box
p1843
(dp1844
g10
F142.539
sg11
F2402.62
sg12
F2152.34
sg13
F373.925
sg14
F0.3454180003923312
sba(ilocalization
box
p1845
(dp1846
g10
F135.708
sg11
F2592.0
sg12
F2458.081
sg13
F290.533
sg14
F0.3454180003923312
sba(ilocalization
box
p1847
(dp1848
g10
F77.504
sg11
F2580.579
sg12
F2434.016
sg13
F137.027
sg14
F0.3454180003923312
sba(ilocalization
box
p1849
(dp1850
g10
F104.25
sg11
F103.96
sg12
F23.619
sg13
F180.325
sg14
F0.34507275504338375
sba(ilocalization
box
p1851
(dp1852
g10
F345.878
sg11
F778.331
sg12
F673.147
sg13
F444.932
sg14
F0.34507275504338375
sba(ilocalization
box
p1853
(dp1854
g10
F129.933
sg11
F695.449
sg12
F597.822
sg13
F220.972
sg14
F0.34507275504338375
sba(ilocalization
box
p1855
(dp1856
g10
F82.844
sg11
F2592.0
sg12
F2120.002
sg13
F539.755
sg14
F0.3447278547672202
sba(ilocalization
box
p1857
(dp1858
g10
F824.59
sg11
F51.175
sg12
F1.0
sg13
F881.782
sg14
F0.3447278547672202
sba(ilocalization
box
p1859
(dp1860
g10
F658.396
sg11
F81.133
sg12
F1.0
sg13
F752.126
sg14
F0.34438329921894
sba(ilocalization
box
p1861
(dp1862
g10
F312.34
sg11
F1003.532
sg12
F942.393
sg13
F368.145
sg14
F0.3433516974975665
sba(ilocalization
box
p1863
(dp1864
g10
F377.331
sg11
F857.246
sg12
F798.395
sg13
F432.751
sg14
F0.3426656803483929
sba(ilocalization
box
p1865
(dp1866
g10
F375.653
sg11
F914.61
sg12
F793.175
sg13
F417.705
sg14
F0.3426656803483929
sba(ilocalization
box
p1867
(dp1868
g10
F178.093
sg11
F1631.997
sg12
F1526.982
sg13
F213.428
sg14
F0.3426656803483929
sba(ilocalization
box
p1869
(dp1870
g10
F220.754
sg11
F1772.237
sg12
F1663.807
sg13
F319.457
sg14
F0.3426656803483929
sba(ilocalization
box
p1871
(dp1872
g10
F114.803
sg11
F939.471
sg12
F856.275
sg13
F191.125
sg14
F0.3426656803483929
sba(ilocalization
box
p1873
(dp1874
g10
F240.939
sg11
F506.626
sg12
F445.042
sg13
F299.515
sg14
F0.34232318594378797
sba(ilocalization
box
p1875
(dp1876
g10
F228.281
sg11
F147.04
sg12
F80.868
sg13
F294.089
sg14
F0.34232318594378797
sba(ilocalization
box
p1877
(dp1878
g10
F446.393
sg11
F1676.769
sg12
F1606.506
sg13
F507.323
sg14
F0.34232318594378797
sba(ilocalization
box
p1879
(dp1880
g10
F188.022
sg11
F1595.992
sg12
F1525.772
sg13
F249.699
sg14
F0.3419810338623976
sba(ilocalization
box
p1881
(dp1882
g10
F508.279
sg11
F139.386
sg12
F63.197
sg13
F583.029
sg14
F0.3419810338623976
sba(ilocalization
box
p1883
(dp1884
g10
F120.376
sg11
F1019.265
sg12
F899.3
sg13
F165.261
sg14
F0.3419810338623976
sba(ilocalization
box
p1885
(dp1886
g10
F446.675
sg11
F605.571
sg12
F541.188
sg13
F507.792
sg14
F0.34163922376206945
sba(ilocalization
box
p1887
(dp1888
g10
F422.387
sg11
F1714.57
sg12
F1639.259
sg13
F488.01
sg14
F0.3412977553009937
sba(ilocalization
box
p1889
(dp1890
g10
F304.16
sg11
F217.49
sg12
F153.593
sg13
F362.077
sg14
F0.34095662813770156
sba(ilocalization
box
p1891
(dp1892
g10
F454.427
sg11
F1028.204
sg12
F952.533
sg13
F524.312
sg14
F0.3406158419310661
sba(ilocalization
box
p1893
(dp1894
g10
F391.893
sg11
F514.282
sg12
F397.052
sg13
F435.449
sg14
F0.3406158419310661
sba(ilocalization
box
p1895
(dp1896
g10
F47.128
sg11
F2581.14
sg12
F2451.705
sg13
F102.805
sg14
F0.3406158419310661
sba(ilocalization
box
p1897
(dp1898
g10
F403.679
sg11
F736.849
sg12
F604.324
sg13
F445.139
sg14
F0.3402753963403008
sba(ilocalization
box
p1899
(dp1900
g10
F444.522
sg11
F530.244
sg12
F452.907
sg13
F518.536
sg14
F0.3402753963403008
sba(ilocalization
box
p1901
(dp1902
g10
F167.301
sg11
F773.432
sg12
F705.687
sg13
F230.522
sg14
F0.33993529102496034
sba(ilocalization
box
p1903
(dp1904
g10
F160.001
sg11
F74.871
sg12
F1.0
sg13
F239.845
sg14
F0.33993529102496034
sba(ilocalization
box
p1905
(dp1906
g10
F15.95
sg11
F723.899
sg12
F643.607
sg13
F88.607
sg14
F0.33993529102496034
sba(ilocalization
box
p1907
(dp1908
g10
F227.557
sg11
F221.299
sg12
F36.233
sg13
F408.03
sg14
F0.3395955256449391
sba(ilocalization
box
p1909
(dp1910
g10
F319.841
sg11
F614.15
sg12
F538.206
sg13
F387.407
sg14
F0.3395955256449391
sba(ilocalization
box
p1911
(dp1912
g10
F583.767
sg11
F217.754
sg12
F159.151
sg13
F642.037
sg14
F0.3389170133321328
sba(ilocalization
box
p1913
(dp1914
g10
F1896.19
sg11
F181.682
sg12
F1.0
sg13
F1926.477
sg14
F0.3385782657208353
sba(ilocalization
box
p1915
(dp1916
g10
F117.76
sg11
F282.991
sg12
F212.187
sg13
F187.495
sg14
F0.3382398566878317
sba(ilocalization
box
p1917
(dp1918
g10
F46.708
sg11
F858.468
sg12
F763.913
sg13
F85.981
sg14
F0.33790178589471304
sba(ilocalization
box
p1919
(dp1920
g10
F1050.172
sg11
F1413.724
sg12
F8.434
sg13
F1885.112
sg14
F0.5655254386995371
sba(ilocalization
box
p1921
(dp1922
g10
F687.163
sg11
F640.113
sg12
F33.846
sg13
F1071.599
sg14
F0.5225680836476948
sba(ilocalization
box
p1923
(dp1924
g10
F263.784
sg11
F1540.826
sg12
F1186.32
sg13
F467.713
sg14
F0.4588646465959545
sba(ilocalization
box
p1925
(dp1926
g10
F671.584
sg11
F1917.889
sg12
F996.776
sg13
F1280.646
sg14
F0.41354042760451515
sba(ilocalization
box
p1927
(dp1928
g10
F697.182
sg11
F2205.11
sg12
F2058.184
sg13
F783.463
sg14
F0.41230166539408875
sbatp1929
Rp1930
sS'boat'
p1931
g2
((lp1932
tp1933
Rp1934
sS'ball2'
p1935
g2
((lp1936
tp1937
Rp1938
sS'van'
p1939
g2
((lp1940
tp1941
Rp1942
sS'streetlight'
p1943
g2
((lp1944
tp1945
Rp1946
sS'curtain'
p1947
g2
((lp1948
tp1949
Rp1950
sS'door'
p1951
g2
((lp1952
(ilocalization
box
p1953
(dp1954
g10
F1.0
sg11
F2491.488
sg12
F1758.633
sg13
F1450.154
sg14
F0.336552878364737
sba(ilocalization
box
p1955
(dp1956
g10
F118.241
sg11
F2117.761
sg12
F1697.049
sg13
F1662.583
sg14
F0.3419810338623976
sba(ilocalization
box
p1957
(dp1958
g10
F1484.558
sg11
F2592.0
sg12
F2528.579
sg13
F1690.342
sg14
F0.3689847366091418
sba(ilocalization
box
p1959
(dp1960
g10
F685.197
sg11
F1968.16
sg12
F1919.279
sg13
F763.525
sg14
F0.3941593538723422
sba(ilocalization
box
p1961
(dp1962
g10
F649.949
sg11
F2236.57
sg12
F2006.007
sg13
F1389.385
sg14
F0.3686159363034188
sba(ilocalization
box
p1963
(dp1964
g10
F688.406
sg11
F2077.138
sg12
F2000.626
sg13
F853.313
sg14
F0.39376539153247
sba(ilocalization
box
p1965
(dp1966
g10
F224.055
sg11
F2513.955
sg12
F2402.137
sg13
F575.285
sg14
F0.38212786547866506
sba(ilocalization
box
p1967
(dp1968
g10
F352.2
sg11
F117.529
sg12
F90.384
sg13
F473.251
sg14
F0.36787944117144233
sba(ilocalization
box
p1969
(dp1970
g10
F1.0
sg11
F306.103
sg12
F193.408
sg13
F309.699
sg14
F0.3355447327042427
sba(ilocalization
box
p1971
(dp1972
g10
F313.358
sg11
F2382.023
sg12
F2295.43
sg13
F547.627
sg14
F0.3730659743671134
sba(ilocalization
box
p1973
(dp1974
g10
F541.227
sg11
F2123.716
sg12
F1761.126
sg13
F1331.771
sg14
F0.36714441755772104
sba(ilocalization
box
p1975
(dp1976
g10
F211.207
sg11
F2183.556
sg12
F2145.066
sg13
F286.225
sg14
F0.39653141907499284
sba(ilocalization
box
p1977
(dp1978
g10
F845.659
sg11
F1822.301
sg12
F1773.643
sg13
F912.258
sg14
F0.38867957090175304
sba(ilocalization
box
p1979
(dp1980
g10
F220.767
sg11
F2166.615
sg12
F2063.183
sg13
F543.03
sg14
F0.36677745665119665
sba(ilocalization
box
p1981
(dp1982
g10
F1183.912
sg11
F1934.925
sg12
F1825.987
sg13
F1333.144
sg14
F0.38751527949936976
sba(ilocalization
box
p1983
(dp1984
g10
F840.615
sg11
F2090.542
sg12
F2032.904
sg13
F988.926
sg14
F0.3715766910220457
sba(ilocalization
box
p1985
(dp1986
g10
F1.0
sg11
F711.236
sg12
F252.31
sg13
F812.662
sg14
F0.33220600682924445
sba(ilocalization
box
p1987
(dp1988
g10
F230.782
sg11
F2092.767
sg12
F2005.371
sg13
F415.408
sg14
F0.39140987280600653
sba(ilocalization
box
p1989
(dp1990
g10
F718.776
sg11
F1834.984
sg12
F1757.206
sg13
F931.992
sg14
F0.38442752475037856
sba(ilocalization
box
p1991
(dp1992
g10
F204.004
sg11
F2362.022
sg12
F2110.996
sg13
F999.682
sg14
F0.3664108625221595
sba(ilocalization
box
p1993
(dp1994
g10
F92.378
sg11
F1957.722
sg12
F1687.684
sg13
F1002.861
sg14
F0.36531327713586137
sba(ilocalization
box
p1995
(dp1996
g10
F1655.051
sg11
F1650.987
sg12
F1590.33
sg13
F1763.812
sg14
F0.38022199479853436
sba(ilocalization
box
p1997
(dp1998
g10
F112.736
sg11
F1085.296
sg12
F791.499
sg13
F1089.67
sg14
F0.3499377491111553
sba(ilocalization
box
p1999
(dp2000
g10
F1755.971
sg11
F2397.156
sg12
F2340.56
sg13
F1823.743
sg14
F0.33287108369807955
sba(ilocalization
box
p2001
(dp2002
g10
F238.125
sg11
F48.606
sg12
F4.644
sg13
F422.215
sg14
F0.36385494264075363
sba(ilocalization
box
p2003
(dp2004
g10
F223.788
sg11
F2592.0
sg12
F2475.724
sg13
F562.862
sg14
F0.38212786547866506
sba(ilocalization
box
p2005
(dp2006
g10
F418.77
sg11
F95.742
sg12
F47.96
sg13
F514.218
sg14
F0.36276501352395324
sba(ilocalization
box
p2007
(dp2008
g10
F67.005
sg11
F210.21
sg12
F177.794
sg13
F165.75
sg14
F0.36131685172433853
sba(ilocalization
box
p2009
(dp2010
g10
F491.402
sg11
F259.831
sg12
F215.096
sg13
F650.448
sg14
F0.3269330072071321
sba(ilocalization
box
p2011
(dp2012
g10
F1055.112
sg11
F1818.349
sg12
F1704.482
sg13
F1400.921
sg14
F0.38442752475037856
sba(ilocalization
box
p2013
(dp2014
g10
F896.046
sg11
F1865.367
sg12
F1665.14
sg13
F1653.318
sg14
F0.3605949401730783
sba(ilocalization
box
p2015
(dp2016
g10
F709.243
sg11
F2226.457
sg12
F2124.016
sg13
F997.575
sg14
F0.40011630965630496
sba(ilocalization
box
p2017
(dp2018
g10
F1.0
sg11
F206.635
sg12
F140.585
sg13
F120.178
sg14
F0.3817459286134471
sba(ilocalization
box
p2019
(dp2020
g10
F215.024
sg11
F2333.823
sg12
F2179.855
sg13
F526.658
sg14
F0.38098319973933725
sba(ilocalization
box
p2021
(dp2022
g10
F79.544
sg11
F2592.0
sg12
F2163.654
sg13
F1626.44
sg14
F0.3602345254702912
sba(ilocalization
box
p2023
(dp2024
g10
F252.163
sg11
F2145.591
sg12
F2078.94
sg13
F407.655
sg14
F0.38022199479853436
sba(ilocalization
box
p2025
(dp2026
g10
F131.404
sg11
F99.847
sg12
F56.901
sg13
F205.531
sg14
F0.3584378482789939
sba(ilocalization
box
p2027
(dp2028
g10
F1614.427
sg11
F1535.275
sg12
F1426.077
sg13
F1944.0
sg14
F0.3302187385548933
sba(ilocalization
box
p2029
(dp2030
g10
F1778.007
sg11
F2484.312
sg12
F2421.753
sg13
F1850.173
sg14
F0.32303325642225295
sba(ilocalization
box
p2031
(dp2032
g10
F1.0
sg11
F123.364
sg12
F6.143
sg13
F379.169
sg14
F0.3573641460927129
sba(ilocalization
box
p2033
(dp2034
g10
F1803.908
sg11
F1862.603
sg12
F1773.064
sg13
F1920.899
sg14
F0.3355447327042427
sba(ilocalization
box
p2035
(dp2036
g10
F766.851
sg11
F2587.33
sg12
F2542.99
sg13
F839.066
sg14
F0.37531109885139957
sba(ilocalization
box
p2037
(dp2038
g10
F1.0
sg11
F229.3
sg12
F1.97
sg13
F682.241
sg14
F0.3570069605691474
sba(ilocalization
box
p2039
(dp2040
g10
F1413.7487647590638
sg11
F256.34189126968386
sg12
F133.35306416702272
sg13
F1716.675401210785
sg14
F6.5847533125258355
sba(ilocalization
box
p2041
(dp2042
g10
F522.133
sg11
F1918.907
sg12
F1614.754
sg13
F1452.246
sg14
F0.35665013205257223
sba(ilocalization
box
p2043
(dp2044
g10
F1075.899
sg11
F1939.422
sg12
F1791.962
sg13
F1334.448
sg14
F0.3738128529454665
sba(ilocalization
box
p2045
(dp2046
g10
F1791.065
sg11
F1784.117
sg12
F1730.241
sg13
F1862.048
sg14
F0.32627979462303947
sba(ilocalization
box
p2047
(dp2048
g10
F1764.041
sg11
F1643.871
sg12
F1577.47
sg13
F1858.569
sg14
F0.3207799195076166
sba(ilocalization
box
p2049
(dp2050
g10
F1636.204
sg11
F2498.854
sg12
F2428.677
sg13
F1742.83
sg14
F0.3217437042203702
sba(ilocalization
box
p2051
(dp2052
g10
F376.666
sg11
F1977.045
sg12
F1913.267
sg13
F527.445
sg14
F0.3730659743671134
sba(ilocalization
box
p2053
(dp2054
g10
F1.0
sg11
F99.136
sg12
F15.184
sg13
F129.371
sg14
F0.3726930948635714
sba(ilocalization
box
p2055
(dp2056
g10
F1617.187
sg11
F1490.634
sg12
F1443.39
sg13
F1694.214
sg14
F0.35098913865426146
sba(ilocalization
box
p2057
(dp2058
g10
F181.421
sg11
F1968.4
sg12
F1820.394
sg13
F496.591
sg14
F0.3723205880531552
sba(ilocalization
box
p2059
(dp2060
g10
F1.0
sg11
F1215.427
sg12
F1.0
sg13
F1569.346
sg14
F0.31758810597858733
sba(ilocalization
box
p2061
(dp2062
g10
F137.935
sg11
F282.311
sg12
F251.295
sg13
F247.805
sg14
F0.35063832495169295
sba(ilocalization
box
p2063
(dp2064
g10
F1601.425
sg11
F1454.495
sg12
F1224.344
sg13
F1925.967
sg14
F0.3128598350754292
sba(ilocalization
box
p2065
(dp2066
g10
F127.444
sg11
F810.766
sg12
F565.556
sg13
F628.293
sg14
F0.38251018447178037
sba(ilocalization
box
p2067
(dp2068
g10
F242.921
sg11
F2321.446
sg12
F1935.739
sg13
F1380.43
sg14
F0.3502878618874786
sba(ilocalization
box
p2069
(dp2070
g10
F1664.517
sg11
F2592.0
sg12
F2555.652
sg13
F1806.038
sg14
F0.31192266203264674
sba(ilocalization
box
p2071
(dp2072
g10
F138.751
sg11
F1708.721
sg12
F1087.189
sg13
F1647.501
sg14
F0.4231620823177488
sba(ilocalization
box
p2073
(dp2074
g10
F642.682
sg11
F1907.914
sg12
F1766.082
sg13
F922.821
sg14
F0.37083428029819565
sba(ilocalization
box
p2075
(dp2076
g10
F181.201
sg11
F116.871
sg12
F32.341
sg13
F358.937
sg14
F0.3745612267757298
sba(ilocalization
box
p2077
(dp2078
g10
F218.519
sg11
F2105.172
sg12
F1852.88
sg13
F986.166
sg14
F0.37083428029819565
sba(ilocalization
box
p2079
(dp2080
g10
F1.0
sg11
F329.003
sg12
F136.943
sg13
F779.821
sg14
F0.3217437042203702
sba(ilocalization
box
p2081
(dp2082
g10
F1.0
sg11
F1813.066
sg12
F618.921
sg13
F1756.175
sg14
F0.3478444089170874
sba(ilocalization
box
p2083
(dp2084
g10
F360.899
sg11
F48.549
sg12
F3.53
sg13
F453.235
sg14
F0.3723205880531552
sba(ilocalization
box
p2085
(dp2086
g10
F429.103
sg11
F2294.275
sg12
F2241.168
sg13
F532.374
sg14
F0.3997163933381341
sbatp2087
Rp2088
sS'countertop'
p2089
g2
((lp2090
(ilocalization
box
p2091
(dp2092
g10
F718.47
sg11
F1108.318
sg12
F513.641
sg13
F1080.61
sg14
F0.37531109885139957
sba(ilocalization
box
p2093
(dp2094
g10
F594.2175
sg11
F2274.383625
sg12
F1963.14
sg13
F744.5151249999999
sg14
F1.4398600988043593
sba(ilocalization
box
p2095
(dp2096
g10
F924.774
sg11
F2314.703
sg12
F497.44
sg13
F1890.697
sg14
F0.37946231074621756
sba(ilocalization
box
p2097
(dp2098
g10
F417.15
sg11
F1410.615
sg12
F1030.337
sg13
F492.619
sg14
F0.369353905899632
sba(ilocalization
box
p2099
(dp2100
g10
F719.518
sg11
F179.902
sg12
F1.0
sg13
F818.17
sg14
F0.3595147764083289
sbatp2101
Rp2102
sS'bus'
p2103
g2
((lp2104
tp2105
Rp2106
sS'stone'
p2107
g2
((lp2108
tp2109
Rp2110
sS'cabinet'
p2111
g2
((lp2112
(ilocalization
box
p2113
(dp2114
g10
F1282.402
sg11
F1616.089
sg12
F1518.975
sg13
F1369.35
sg14
F0.3941593538723422
sba(ilocalization
box
p2115
(dp2116
g10
F852.247
sg11
F413.743
sg12
F249.998
sg13
F1175.309
sg14
F0.3941593538723422
sba(ilocalization
box
p2117
(dp2118
g10
F1053.697
sg11
F2574.339
sg12
F1626.613
sg13
F1479.269
sg14
F0.39297864775542996
sba(ilocalization
box
p2119
(dp2120
g10
F1438.188
sg11
F360.471
sg12
F191.116
sg13
F1498.191
sg14
F0.39140987280600653
sba(ilocalization
box
p2121
(dp2122
g10
F12.367
sg11
F618.978
sg12
F297.655
sg13
F687.268
sg14
F0.3902374027719919
sba(ilocalization
box
p2123
(dp2124
g10
F35.958
sg11
F2592.0
sg12
F1599.794
sg13
F580.704
sg14
F0.38674102345450123
sba(ilocalization
box
p2125
(dp2126
g10
F6.945
sg11
F2535.318
sg12
F1691.84
sg13
F1638.686
sg14
F0.38596831437424217
sba(ilocalization
box
p2127
(dp2128
g10
F950.585
sg11
F1785.321
sg12
F372.849
sg13
F1750.866
sg14
F0.37568659766836787
sba(ilocalization
box
p2129
(dp2130
g10
F1511.98
sg11
F177.29
sg12
F63.785
sg13
F1665.191
sg14
F0.3730659743671134
sba(ilocalization
box
p2131
(dp2132
g10
F367.836
sg11
F119.284
sg12
F44.94
sg13
F536.342
sg14
F0.37009335291196127
sba(ilocalization
box
p2133
(dp2134
g10
F1825.649
sg11
F2592.0
sg12
F2531.514
sg13
F1939.532
sg14
F0.3689847366091418
sba(ilocalization
box
p2135
(dp2136
g10
F1098.31
sg11
F246.769
sg12
F166.077
sg13
F1213.435
sg14
F0.3686159363034188
sba(ilocalization
box
p2137
(dp2138
g10
F796.832
sg11
F476.026
sg12
F213.904
sg13
F1219.127
sg14
F0.36787944117144233
sba(ilocalization
box
p2139
(dp2140
g10
F1.0
sg11
F1902.655
sg12
F943.384
sg13
F1944.0
sg14
F0.36714441755772104
sba(ilocalization
box
p2141
(dp2142
g10
F654.928
sg11
F665.826
sg12
F72.738
sg13
F1426.535
sg14
F0.36714441755772104
sba(ilocalization
box
p2143
(dp2144
g10
F577.6
sg11
F152.347
sg12
F85.239
sg13
F644.357
sg14
F0.3664108625221595
sba(ilocalization
box
p2145
(dp2146
g10
F1349.782
sg11
F2451.879
sg12
F1339.917
sg13
F1944.0
sg14
F0.4151979020538666
sba(ilocalization
box
p2147
(dp2148
g10
F8.489
sg11
F236.265
sg12
F1.0
sg13
F558.326
sg14
F0.3660446348040154
sba(ilocalization
box
p2149
(dp2150
g10
F1594.168
sg11
F90.399
sg12
F12.208
sg13
F1676.753
sg14
F0.36567877313053654
sba(ilocalization
box
p2151
(dp2152
g10
F1021.899
sg11
F2423.144
sg12
F2291.498
sg13
F1131.688
sg14
F0.3953436074260998
sba(ilocalization
box
p2153
(dp2154
g10
F1495.4
sg11
F1102.41
sg12
F1025.241
sg13
F1592.989
sg14
F0.3945537103716011
sba(ilocalization
box
p2155
(dp2156
g10
F205.8441240234375
sg11
F1905.6147499999997
sg12
F1452.741853515625
sg13
F537.8864970703125
sg14
F4.2778484834404
sbatp2157
Rp2158
sS'glass'
p2159
g2
((lp2160
(ilocalization
box
p2161
(dp2162
g10
F877.966
sg11
F2573.599
sg12
F2488.366
sg13
F1019.867
sg14
F0.397325275504954
sba(ilocalization
box
p2163
(dp2164
g10
F847.587
sg11
F478.443
sg12
F253.689
sg13
F1337.662
sg14
F0.42485812046192456
sba(ilocalization
box
p2165
(dp2166
g10
F471.348
sg11
F1407.481
sg12
F1020.562
sg13
F1144.189
sg14
F0.39297864775542996
sba(ilocalization
box
p2167
(dp2168
g10
F1573.175
sg11
F834.687
sg12
F791.177
sg13
F1663.157
sg14
F0.42273913174596284
sba(ilocalization
box
p2169
(dp2170
g10
F551.157
sg11
F529.621
sg12
F429.441
sg13
F714.117
sg14
F0.41727909019869114
sba(ilocalization
box
p2171
(dp2172
g10
F730.9155000000001
sg11
F1344.0974999999999
sg12
F1208.55625
sg13
F967.1902499999999
sg14
F1.2468979682687782
sba(ilocalization
box
p2173
(dp2174
g10
F1398.454
sg11
F2129.113
sg12
F2076.809
sg13
F1508.611
sg14
F0.4151979020538666
sba(ilocalization
box
p2175
(dp2176
g10
F1683.191
sg11
F1068.921
sg12
F1032.109
sg13
F1756.974
sg14
F0.4061632932979437
sba(ilocalization
box
p2177
(dp2178
g10
F1092.755
sg11
F1968.215
sg12
F1670.69
sg13
F1700.905
sg14
F0.5061106285973052
sbatp2179
Rp2180
sS'flowers'
p2181
g2
((lp2182
tp2183
Rp2184
sS'television'
p2185
g2
((lp2186
tp2187
Rp2188
sS'car'
p2189
g2
((lp2190
tp2191
Rp2192
sS'ceiling_lamp'
p2193
g2
((lp2194
(ilocalization
box
p2195
(dp2196
g10
F1.0
sg11
F1913.389
sg12
F1849.21
sg13
F40.653
sg14
F0.38060240696771647
sba(ilocalization
box
p2197
(dp2198
g10
F907.961
sg11
F215.739
sg12
F160.197
sg13
F1036.514
sg14
F0.38136437349418956
sba(ilocalization
box
p2199
(dp2200
g10
F1621.0997851562502
sg11
F670.967740234375
sg12
F531.128634765625
sg13
F1708.72255078125
sg14
F3.710475369162883
sbatp2201
Rp2202
sS'tree'
p2203
g2
((lp2204
tp2205
Rp2206
sS'bed'
p2207
g2
((lp2208
(ilocalization
box
p2209
(dp2210
g10
F1441.904
sg11
F371.695
sg12
F131.176
sg13
F1618.588
sg14
F0.39297864775542996
sba(ilocalization
box
p2211
(dp2212
g10
F1349.149
sg11
F2547.339
sg12
F1693.165
sg13
F1944.0
sg14
F0.5752215546291638
sba(ilocalization
box
p2213
(dp2214
g10
F551.268
sg11
F462.115
sg12
F370.494
sg13
F657.476
sg14
F0.40942563159841006
sba(ilocalization
box
p2215
(dp2216
g10
F417.193
sg11
F2511.751
sg12
F1.0
sg13
F1944.0
sg14
F0.39062783535852114
sba(ilocalization
box
p2217
(dp2218
g10
F828.7548750000001
sg11
F1567.8665
sg12
F1117.01825
sg13
F1070.58525
sg14
F2.3597490935358425
sbatp2219
Rp2220
sS'grass'
p2221
g2
((lp2222
tp2223
Rp2224
sS'toilet'
p2225
g2
((lp2226
tp2227
Rp2228
sS'counter'
p2229
g2
((lp2230
(ilocalization
box
p2231
(dp2232
g10
F493.201
sg11
F1369.331
sg12
F1149.166
sg13
F601.828
sg14
F0.4073836127417638
sba(ilocalization
box
p2233
(dp2234
g10
F124.362
sg11
F747.844
sg12
F669.362
sg13
F190.062
sg14
F0.36787944117144233
sba(ilocalization
box
p2235
(dp2236
g10
F723.839
sg11
F1483.005
sg12
F1.0
sg13
F1789.637
sg14
F0.39140987280600653
sba(ilocalization
box
p2237
(dp2238
g10
F1864.222
sg11
F2438.848
sg12
F2481.708
sg13
F1944.0
sg14
F0.36494814645449375
sba(ilocalization
box
p2239
(dp2240
g10
F1316.512
sg11
F2592.0
sg12
F1118.142
sg13
F1882.7
sg14
F0.3642189795715233
sba(ilocalization
box
p2241
(dp2242
g10
F1892.602
sg11
F1081.411
sg12
F1087.096
sg13
F1903.186
sg14
F0.37083428029819565
sba(ilocalization
box
p2243
(dp2244
g10
F878.610666015625
sg11
F2366.8663977050783
sg12
F2247.0996752929686
sg13
F971.4802092285156
sg14
F4.86979091558962
sba(ilocalization
box
p2245
(dp2246
g10
F622.827
sg11
F362.481
sg12
F302.979
sg13
F648.519
sg14
F0.3689847366091418
sbatp2247
Rp2248
sS'videos'
p2249
g2
((lp2250
tp2251
Rp2252
sS'handrail'
p2253
g2
((lp2254
(ilocalization
box
p2255
(dp2256
g10
F1465.524
sg11
F769.69
sg12
F494.521
sg13
F1597.492
sg14
F0.39258586553151836
sba(ilocalization
box
p2257
(dp2258
g10
F628.451
sg11
F2569.486
sg12
F2481.241
sg13
F661.109
sg14
F0.39101865857291823
sba(ilocalization
box
p2259
(dp2260
g10
F667.242
sg11
F673.774
sg12
F37.036
sg13
F1337.366
sg14
F0.38251018447178037
sba(ilocalization
box
p2261
(dp2262
g10
F410.394
sg11
F120.517
sg12
F77.569
sg13
F493.873
sg14
F0.4049466293265049
sba(ilocalization
box
p2263
(dp2264
g10
F1016.89653125
sg11
F2243.6138124999998
sg12
F1197.25625
sg13
F1500.044875
sg14
F2.390424830824422
sbatp2265
Rp2266
sS'microwave2'
p2267
g2
((lp2268
(ilocalization
box
p2269
(dp2270
g10
F369.976
sg11
F2592.0
sg12
F2477.843
sg13
F453.729
sg14
F0.30574617949871175
sba(ilocalization
box
p2271
(dp2272
g10
F819.943
sg11
F1902.857
sg12
F1717.1
sg13
F965.576
sg14
F0.35665013205257223
sba(ilocalization
box
p2273
(dp2274
g10
F1551.095
sg11
F2592.0
sg12
F2483.227
sg13
F1736.146
sg14
F0.30483031544319683
sba(ilocalization
box
p2275
(dp2276
g10
F311.613
sg11
F1386.654
sg12
F1.0
sg13
F1760.642
sg14
F0.35558178497828613
sba(ilocalization
box
p2277
(dp2278
g10
F429.046
sg11
F2592.0
sg12
F2487.672
sg13
F586.277
sg14
F0.30330996790222264
sba(ilocalization
box
p2279
(dp2280
g10
F269.73
sg11
F2323.267
sg12
F2207.347
sg13
F346.925
sg14
F0.3552263809249515
sba(ilocalization
box
p2281
(dp2282
g10
F1426.59
sg11
F2592.0
sg12
F2484.569
sg13
F1553.888
sg14
F0.3030068095387654
sba(ilocalization
box
p2283
(dp2284
g10
F814.624
sg11
F2395.924
sg12
F1391.632
sg13
F1633.852
sg14
F0.35416229870357024
sba(ilocalization
box
p2285
(dp2286
g10
F1204.11
sg11
F2592.0
sg12
F2511.086
sg13
F1310.698
sg14
F0.3017972031262435
sba(ilocalization
box
p2287
(dp2288
g10
F91.443
sg11
F126.765
sg12
F1.0
sg13
F223.796
sg14
F0.34403908805398786
sba(ilocalization
box
p2289
(dp2290
g10
F762.929
sg11
F2592.0
sg12
F2479.235
sg13
F941.893
sg14
F0.2993924573097967
sba(ilocalization
box
p2291
(dp2292
g10
F1.0
sg11
F2534.331
sg12
F1.0
sg13
F1944.0
sg14
F0.34403908805398786
sba(ilocalization
box
p2293
(dp2294
g10
F278.255
sg11
F2592.0
sg12
F2507.021
sg13
F353.148
sg14
F0.3318739668700649
sba(ilocalization
box
p2295
(dp2296
g10
F516.4
sg11
F2592.0
sg12
F2480.095
sg13
F595.31
sg14
F0.3285717657253846
sba(ilocalization
box
p2297
(dp2298
g10
F710.662
sg11
F2592.0
sg12
F2479.495
sg13
F793.446
sg14
F0.32824335819079375
sba(ilocalization
box
p2299
(dp2300
g10
F206.45
sg11
F2592.0
sg12
F2487.461
sg13
F289.058
sg14
F0.32335645124915574
sba(ilocalization
box
p2301
(dp2302
g10
F1541.12
sg11
F2592.0
sg12
F2484.132
sg13
F1643.216
sg14
F0.32303325642225295
sba(ilocalization
box
p2303
(dp2304
g10
F1096.946
sg11
F2592.0
sg12
F2483.434
sg13
F1201.319
sg14
F0.32238783554542555
sba(ilocalization
box
p2305
(dp2306
g10
F7.048
sg11
F2592.0
sg12
F2504.058
sg13
F72.671
sg14
F0.3204592999246188
sba(ilocalization
box
p2307
(dp2308
g10
F1645.73
sg11
F2592.0
sg12
F2491.58
sg13
F1740.781
sg14
F0.31727067661374364
sba(ilocalization
box
p2309
(dp2310
g10
F1409.1755
sg11
F540.995
sg12
F298.955
sg13
F1598.562
sg14
F0.7241035877838984
sba(ilocalization
box
p2311
(dp2312
g10
F1354.69
sg11
F2592.0
sg12
F2496.082
sg13
F1450.299
sg14
F0.31727067661374364
sba(ilocalization
box
p2313
(dp2314
g10
F62.916
sg11
F2592.0
sg12
F2477.893
sg13
F155.256
sg14
F0.31600412869186256
sba(ilocalization
box
p2315
(dp2316
g10
F886.78
sg11
F2592.0
sg12
F2488.203
sg13
F1055.334
sg14
F0.31600412869186256
sba(ilocalization
box
p2317
(dp2318
g10
F585.187
sg11
F2592.0
sg12
F2500.062
sg13
F666.409
sg14
F0.3150575369034133
sba(ilocalization
box
p2319
(dp2320
g10
F1052.03
sg11
F2592.0
sg12
F2492.282
sg13
F1130.233
sg14
F0.3147426368427819
sba(ilocalization
box
p2321
(dp2322
g10
F329.679
sg11
F2592.0
sg12
F2481.562
sg13
F404.847
sg14
F0.31411378063492296
sba(ilocalization
box
p2323
(dp2324
g10
F1728.236
sg11
F2592.0
sg12
F2524.381
sg13
F1831.059
sg14
F0.3128598350754292
sba(ilocalization
box
p2325
(dp2326
g10
F425.005
sg11
F2592.0
sg12
F2527.15
sg13
F514.883
sg14
F0.3112994401382165
sba(ilocalization
box
p2327
(dp2328
g10
F1865.763
sg11
F2592.0
sg12
F2518.187
sg13
F1944.0
sg14
F0.31036694126548503
sba(ilocalization
box
p2329
(dp2330
g10
F122.937
sg11
F2592.0
sg12
F2480.125
sg13
F210.768
sg14
F0.31036694126548503
sba(ilocalization
box
p2331
(dp2332
g10
F945.955
sg11
F1837.934
sg12
F706.123
sg13
F1897.77
sg14
F0.36494814645449375
sba(ilocalization
box
p2333
(dp2334
g10
F1795.838
sg11
F2592.0
sg12
F2515.456
sg13
F1899.415
sg14
F0.3097468277032208
sba(ilocalization
box
p2335
(dp2336
g10
F22.364
sg11
F1179.519
sg12
F398.547
sg13
F632.469
sg14
F0.36312795998045994
sba(ilocalization
box
p2337
(dp2338
g10
F821.544
sg11
F2592.0
sg12
F2499.421
sg13
F906.263
sg14
F0.3078939110457206
sba(ilocalization
box
p2339
(dp2340
g10
F709.536
sg11
F1685.16
sg12
F1373.496
sg13
F944.948
sg14
F0.36204020854348745
sba(ilocalization
box
p2341
(dp2342
g10
F1270.888
sg11
F2592.0
sg12
F2482.827
sg13
F1366.875
sg14
F0.306664795271906
sba(ilocalization
box
p2343
(dp2344
g10
F273.215
sg11
F1221.581
sg12
F352.659
sg13
F980.093
sg14
F0.3591554413294046
sbatp2345
Rp2346
sS'drawer'
p2347
g2
((lp2348
tp2349
Rp2350
sS'airplane'
p2351
g2
((lp2352
tp2353
Rp2354
sS'balcony'
p2355
g2
((lp2356
tp2357
Rp2358
sS'mountain'
p2359
g2
((lp2360
tp2361
Rp2362
sS'bottles'
p2363
g2
((lp2364
tp2365
Rp2366
sS'floor'
p2367
g2
((lp2368
(ilocalization
box
p2369
(dp2370
g10
F418.315
sg11
F2473.84
sg12
F58.31
sg13
F922.758
sg14
F0.9627129408911995
sba(ilocalization
box
p2371
(dp2372
g10
F645.16
sg11
F1732.915
sg12
F15.113
sg13
F1239.339
sg14
F0.5543272847345071
sba(ilocalization
box
p2373
(dp2374
g10
F1320.84
sg11
F2592.0
sg12
F836.327
sg13
F1944.0
sg14
F1.3965431435745053
sba(ilocalization
box
p2375
(dp2376
g10
F937.356
sg11
F2592.0
sg12
F111.449
sg13
F1938.013
sg14
F0.9121051495450904
sba(ilocalization
box
p2377
(dp2378
g10
F104.912
sg11
F2592.0
sg12
F38.421
sg13
F674.289
sg14
F0.2922925776808594
sbatp2379
Rp2380
sS'bowl'
p2381
g2
((lp2382
tp2383
Rp2384
sS'machine'
p2385
g2
((lp2386
tp2387
Rp2388
sS'field'
p2389
g2
((lp2390
(ilocalization
box
p2391
(dp2392
g10
F102.937
sg11
F2592.0
sg12
F2252.259
sg13
F94.478
sg14
F0.34232318594378797
sba(ilocalization
box
p2393
(dp2394
g10
F487.054
sg11
F1692.446
sg12
F1437.389
sg13
F475.753
sg14
F0.3502878618874786
sba(ilocalization
box
p2395
(dp2396
g10
F115.597
sg11
F2592.0
sg12
F2262.315
sg13
F96.613
sg14
F0.3478444089170874
sba(ilocalization
box
p2397
(dp2398
g10
F1420.666
sg11
F1260.135
sg12
F1008.022
sg13
F1441.104
sg14
F0.3817459286134471
sba(ilocalization
box
p2399
(dp2400
g10
F1539.008
sg11
F2485.627
sg12
F2130.389
sg13
F1509.806
sg14
F0.34232318594378797
sba(ilocalization
box
p2401
(dp2402
g10
F117.694
sg11
F2592.0
sg12
F1977.472
sg13
F205.028
sg14
F0.3478444089170874
sba(ilocalization
box
p2403
(dp2404
g10
F98.347
sg11
F2592.0
sg12
F2364.935
sg13
F42.947
sg14
F0.34576359115930777
sba(ilocalization
box
p2405
(dp2406
g10
F671.9530239257813
sg11
F691.2851928710937
sg12
F476.565095703125
sg13
F712.0892963867188
sg14
F4.59253028455591
sba(ilocalization
box
p2407
(dp2408
g10
F100.389
sg11
F2592.0
sg12
F2256.254
sg13
F91.591
sg14
F0.3495879862726104
sba(ilocalization
box
p2409
(dp2410
g10
F79.564
sg11
F2592.0
sg12
F2000.055
sg13
F162.116
sg14
F0.36276501352395324
sba(ilocalization
box
p2411
(dp2412
g10
F1065.8
sg11
F1669.861
sg12
F1323.197
sg13
F1089.849
sg14
F0.3426656803483929
sbatp2413
Rp2414
sS'book'
p2415
g2
((lp2416
(ilocalization
box
p2417
(dp2418
g10
F1281.474
sg11
F708.903
sg12
F320.64
sg13
F1618.667
sg14
F0.41147788611717057
sba(ilocalization
box
p2419
(dp2420
g10
F769.96
sg11
F2368.924
sg12
F2323.194
sg13
F848.961
sg14
F0.4041375454214515
sba(ilocalization
box
p2421
(dp2422
g10
F393.7455
sg11
F1429.2044999999998
sg12
F1234.3629999999998
sg13
F567.7295
sg14
F0.825916419846122
sba(ilocalization
box
p2423
(dp2424
g10
F901.162
sg11
F178.141
sg12
F75.908
sg13
F943.008
sg14
F0.40292694958688574
sba(ilocalization
box
p2425
(dp2426
g10
F1174.699
sg11
F1652.261
sg12
F1545.762
sg13
F1203.022
sg14
F0.418951549247639
sbatp2427
Rp2428
sS'poster'
p2429
g2
((lp2430
tp2431
Rp2432
sS'gate'
p2433
g2
((lp2434
tp2435
Rp2436
sS'picture'
p2437
g2
((lp2438
tp2439
Rp2440
sS'plant'
p2441
g2
((lp2442
tp2443
Rp2444
sS'ball'
p2445
g2
((lp2446
(ilocalization
box
p2447
(dp2448
g10
F1.0
sg11
F2452.188
sg12
F1.0
sg13
F899.871
sg14
F1.0
sba(ilocalization
box
p2449
(dp2450
g10
F1285.6610625
sg11
F259.80156250000005
sg12
F1.0
sg13
F1629.82725
sg14
F6.0
sba(ilocalization
box
p2451
(dp2452
g10
F844.326
sg11
F2592.0
sg12
F1302.125
sg13
F1944.0
sg14
F1.0
sba(ilocalization
box
p2453
(dp2454
g10
F456.659
sg11
F2592.0
sg12
F138.195
sg13
F1944.0
sg14
F1.0
sba(ilocalization
box
p2455
(dp2456
g10
F1.0
sg11
F2592.0
sg12
F1294.833
sg13
F1682.395
sg14
F1.0
sbatp2457
Rp2458
sS'cupboard'
p2459
g2
((lp2460
(ilocalization
box
p2461
(dp2462
g10
F720.707
sg11
F777.33
sg12
F641.349
sg13
F967.3
sg14
F0.38022199479853436
sba(ilocalization
box
p2463
(dp2464
g10
F233.101
sg11
F2530.699
sg12
F2359.316
sg13
F317.859
sg14
F0.37756973457577797
sba(ilocalization
box
p2465
(dp2466
g10
F211.698
sg11
F2221.5
sg12
F2167.786
sg13
F293.019
sg14
F0.39494846142460327
sba(ilocalization
box
p2467
(dp2468
g10
F718.391
sg11
F895.112
sg12
F196.069
sg13
F1318.329
sg14
F0.37120530005745517
sba(ilocalization
box
p2469
(dp2470
g10
F243.494
sg11
F2399.226
sg12
F2235.34
sg13
F607.029
sg14
F0.37568659766836787
sba(ilocalization
box
p2471
(dp2472
g10
F58.957
sg11
F1714.886
sg12
F1048.294
sg13
F487.469
sg14
F0.3941593538723422
sba(ilocalization
box
p2473
(dp2474
g10
F1026.462
sg11
F859.897
sg12
F780.781
sg13
F1139.717
sg14
F0.41853280710435814
sba(ilocalization
box
p2475
(dp2476
g10
F463.103
sg11
F2589.8
sg12
F2552.619
sg13
F599.646
sg14
F0.37493597534556133
sba(ilocalization
box
p2477
(dp2478
g10
F1454.332
sg11
F1200.277
sg12
F940.175
sg13
F1555.616
sg14
F0.37083428029819565
sba(ilocalization
box
p2479
(dp2480
g10
F1423.644
sg11
F1293.431
sg12
F1280.048
sg13
F1533.436
sg14
F0.37343922693666093
sba(ilocalization
box
p2481
(dp2482
g10
F104.873
sg11
F956.076
sg12
F593.655
sg13
F445.066
sg14
F0.4334408238165043
sba(ilocalization
box
p2483
(dp2484
g10
F1281.472
sg11
F1247.403
sg12
F1190.36
sg13
F1394.85
sg14
F0.38212786547866506
sba(ilocalization
box
p2485
(dp2486
g10
F1219.69
sg11
F1347.63
sg12
F1309.723
sg13
F1360.288
sg14
F0.3726930948635714
sba(ilocalization
box
p2487
(dp2488
g10
F392.141
sg11
F2473.808
sg12
F2422.819
sg13
F549.633
sg14
F0.37120530005745517
sba(ilocalization
box
p2489
(dp2490
g10
F1.0
sg11
F641.343
sg12
F168.854
sg13
F752.658
sg14
F0.389457707921197
sba(ilocalization
box
p2491
(dp2492
g10
F792.941
sg11
F657.23
sg12
F1.0
sg13
F1203.365
sg14
F0.37794749315816506
sba(ilocalization
box
p2493
(dp2494
g10
F226.81
sg11
F2485.899
sg12
F2413.844
sg13
F407.253
sg14
F0.3723205880531552
sba(ilocalization
box
p2495
(dp2496
g10
F362.643
sg11
F1985.503
sg12
F1911.776
sg13
F550.408
sg14
F0.3840432893753353
sba(ilocalization
box
p2497
(dp2498
g10
F1242.728313964844
sg11
F2296.9287753906247
sg12
F1937.8723701171875
sg13
F1692.550419921875
sg14
F4.648597347804378
sba(ilocalization
box
p2499
(dp2500
g10
F399.542
sg11
F1019.08
sg12
F601.521
sg13
F664.7
sg14
F0.405351778496654
sbatp2501
Rp2502
sS'staircase'
p2503
g2
((lp2504
(ilocalization
box
p2505
(dp2506
g10
F1201.814
sg11
F843.079
sg12
F1.0
sg13
F1765.067
sg14
F0.44619464428627154
sba(ilocalization
box
p2507
(dp2508
g10
F126.807
sg11
F1346.734
sg12
F35.18
sg13
F1944.0
sg14
F0.39692814882588245
sba(ilocalization
box
p2509
(dp2510
g10
F29.753
sg11
F637.602
sg12
F1.0
sg13
F1086.602
sg14
F0.5379444375946745
sba(ilocalization
box
p2511
(dp2512
g10
F4.123
sg11
F2592.0
sg12
F709.733
sg13
F1929.721
sg14
F0.4338744814329909
sba(ilocalization
box
p2513
(dp2514
g10
F336.349
sg11
F2592.0
sg12
F1612.34
sg13
F1894.605
sg14
F0.5433508690744998
sbatp2515
Rp2516
sS'awning'
p2517
g2
((lp2518
(ilocalization
box
p2519
(dp2520
g10
F1145.516
sg11
F1298.639
sg12
F1122.015
sg13
F1191.644
sg14
F0.3723205880531552
sba(ilocalization
box
p2521
(dp2522
g10
F1276.3405
sg11
F2449.687625
sg12
F2155.2835
sg13
F1354.2916249999998
sg14
F1.5083927876247767
sba(ilocalization
box
p2523
(dp2524
g10
F1541.041
sg11
F552.044
sg12
F425.031
sg13
F1608.096
sg14
F0.3726930948635714
sba(ilocalization
box
p2525
(dp2526
g10
F314.176
sg11
F78.769
sg12
F18.645
sg13
F364.737
sg14
F0.3953436074260998
sba(ilocalization
box
p2527
(dp2528
g10
F335.255
sg11
F2308.964
sg12
F2071.897
sg13
F401.873
sg14
F0.3738128529454665
sbatp2529
Rp2530
sS'stove2'
p2531
g2
((lp2532
(ilocalization
box
p2533
(dp2534
g10
F458.293
sg11
F1562.819
sg12
F1598.328
sg13
F530.516
sg14
F0.36095571547083566
sba(ilocalization
box
p2535
(dp2536
g10
F923.009
sg11
F2081.215
sg12
F2196.574
sg13
F1138.31
sg14
F0.3573641460927129
sba(ilocalization
box
p2537
(dp2538
g10
F1305.327
sg11
F2042.799
sg12
F2212.5
sg13
F1616.716
sg14
F0.3616783492947233
sba(ilocalization
box
p2539
(dp2540
g10
F1119.57266015625
sg11
F1346.9505273437499
sg12
F883.38246484375
sg13
F1405.82986328125
sg14
F3.2869542484413072
sbatp2541
Rp2542
sS'refrigerator'
p2543
g2
((lp2544
tp2545
Rp2546
sS'building'
p2547
g2
((lp2548
tp2549
Rp2550
sS'showcase'
p2551
g2
((lp2552
tp2553
Rp2554
sS'desk_lamp'
p2555
g2
((lp2556
(ilocalization
box
p2557
(dp2558
g10
F285.728
sg11
F1527.755
sg12
F1400.089
sg13
F453.533
sg14
F0.3419810338623976
sba(ilocalization
box
p2559
(dp2560
g10
F279.739
sg11
F2431.768
sg12
F2299.948
sg13
F626.586
sg14
F0.32335645124915574
sba(ilocalization
box
p2561
(dp2562
g10
F253.55
sg11
F1981.59
sg12
F1948.721
sg13
F304.584
sg14
F0.3419810338623976
sba(ilocalization
box
p2563
(dp2564
g10
F600.364
sg11
F2291.571
sg12
F2257.411
sg13
F671.436
sg14
F0.32206560885008
sba(ilocalization
box
p2565
(dp2566
g10
F1455.515
sg11
F2529.701
sg12
F2542.059
sg13
F1471.923
sg14
F0.3412977553009937
sba(ilocalization
box
p2567
(dp2568
g10
F399.166
sg11
F2023.819
sg12
F1965.085
sg13
F557.642
sg14
F0.3207799195076166
sba(ilocalization
box
p2569
(dp2570
g10
F814.654
sg11
F1558.803
sg12
F1519.395
sg13
F867.381
sg14
F0.3412977553009937
sba(ilocalization
box
p2571
(dp2572
g10
F1.0
sg11
F2522.756
sg12
F2487.361
sg13
F42.075
sg14
F0.3207799195076166
sba(ilocalization
box
p2573
(dp2574
g10
F785.649
sg11
F2565.821
sg12
F2561.644
sg13
F820.244
sg14
F0.33756405300340836
sba(ilocalization
box
p2575
(dp2576
g10
F259.821
sg11
F1861.222
sg12
F1748.296
sg13
F605.225
sg14
F0.336552878364737
sba(ilocalization
box
p2577
(dp2578
g10
F410.639
sg11
F1988.895
sg12
F1939.541
sg13
F494.511
sg14
F0.3207799195076166
sba(ilocalization
box
p2579
(dp2580
g10
F253.945
sg11
F1545.824
sg12
F1356.231
sg13
F526.775
sg14
F0.3345396069486076
sba(ilocalization
box
p2581
(dp2582
g10
F674.061
sg11
F2456.943
sg12
F2460.071
sg13
F702.157
sg14
F0.3207799195076166
sba(ilocalization
box
p2583
(dp2584
g10
F695.244
sg11
F1801.729
sg12
F943.267
sg13
F1722.852
sg14
F0.33320412127281185
sba(ilocalization
box
p2585
(dp2586
g10
F616.785
sg11
F2301.7
sg12
F2241.634
sg13
F700.902
sg14
F0.3188610024983463
sba(ilocalization
box
p2587
(dp2588
g10
F1.0
sg11
F2053.053
sg12
F1600.557
sg13
F632.939
sg14
F0.318542300873219
sba(ilocalization
box
p2589
(dp2590
g10
F706.914
sg11
F2438.583
sg12
F1843.826
sg13
F1378.903
sg14
F0.329888684870685
sba(ilocalization
box
p2591
(dp2592
g10
F79.8915009059906
sg11
F176.5529957485199
sg12
F89.41661323356628
sg13
F251.03608639335633
sg14
F6.694474631924064
sba(ilocalization
box
p2593
(dp2594
g10
F357.459
sg11
F2356.53
sg12
F2253.198
sg13
F568.768
sg14
F0.32791527889958855
sba(ilocalization
box
p2595
(dp2596
g10
F182.139
sg11
F2388.292
sg12
F2343.956
sg13
F291.262
sg14
F0.3275875275236895
sba(ilocalization
box
p2597
(dp2598
g10
F1463.272
sg11
F2526.823
sg12
F2541.054
sg13
F1478.272
sg14
F0.32562788715856034
sba(ilocalization
box
p2599
(dp2600
g10
F1454.316
sg11
F2265.987
sg12
F2275.684
sg13
F1478.578
sg14
F0.3253024220310876
sba(ilocalization
box
p2601
(dp2602
g10
F116.064
sg11
F1328.433
sg12
F799.447
sg13
F859.02
sg14
F0.41727909019869114
sba(ilocalization
box
p2603
(dp2604
g10
F436.881
sg11
F2252.25
sg12
F2206.145
sg13
F568.231
sg14
F0.3253024220310876
sba(ilocalization
box
p2605
(dp2606
g10
F245.135
sg11
F2587.779
sg12
F2533.641
sg13
F385.336
sg14
F0.324977282206064
sba(ilocalization
box
p2607
(dp2608
g10
F1838.674
sg11
F2317.753
sg12
F2338.999
sg13
F1848.653
sg14
F0.324977282206064
sba(ilocalization
box
p2609
(dp2610
g10
F877.178
sg11
F2526.65
sg12
F2486.107
sg13
F938.051
sg14
F0.3478444089170874
sba(ilocalization
box
p2611
(dp2612
g10
F314.555
sg11
F2592.0
sg12
F2528.374
sg13
F494.972
sg14
F0.32465246735834974
sba(ilocalization
box
p2613
(dp2614
g10
F673.593
sg11
F2462.717
sg12
F2452.336
sg13
F716.931
sg14
F0.3447278547672202
sbatp2615
Rp2616
sS'person'
p2617
g2
((lp2618
tp2619
Rp2620
sS'truck'
p2621
g2
((lp2622
(ilocalization
box
p2623
(dp2624
g10
F1060.247
sg11
F1966.614
sg12
F1830.646
sg13
F1105.027
sg14
F0.4448580662229411
sba(ilocalization
box
p2625
(dp2626
g10
F1873.178
sg11
F1590.945
sg12
F1387.018
sg13
F1940.758
sg14
F0.36714441755772104
sba(ilocalization
box
p2627
(dp2628
g10
F1484.206
sg11
F1145.325
sg12
F995.144
sg13
F1532.531
sg14
F0.38136437349418956
sba(ilocalization
box
p2629
(dp2630
g10
F549.134
sg11
F1316.861
sg12
F1225.503
sg13
F606.945
sg14
F0.36204020854348745
sba(ilocalization
box
p2631
(dp2632
g10
F535.134
sg11
F1357.635
sg12
F1267.747
sg13
F589.769
sg14
F0.6101807830906798
sba(ilocalization
box
p2633
(dp2634
g10
F1631.98
sg11
F64.173
sg12
F1.0
sg13
F1703.583
sg14
F0.35807958958991437
sba(ilocalization
box
p2635
(dp2636
g10
F1501.163
sg11
F1105.822
sg12
F988.204
sg13
F1595.443
sg14
F0.3573641460927129
sba(ilocalization
box
p2637
(dp2638
g10
F1871.838
sg11
F2585.58
sg12
F2492.694
sg13
F1937.21
sg14
F0.4127141732790497
sba(ilocalization
box
p2639
(dp2640
g10
F877.1289999999999
sg11
F523.6575
sg12
F299.2515
sg13
F998.3905
sg14
F0.7410472962039105
sba(ilocalization
box
p2641
(dp2642
g10
F1482.461
sg11
F1217.892
sg12
F1060.593
sg13
F1536.079
sg14
F0.348540793887764
sbatp2643
Rp2644
sS'bottle'
p2645
g2
((lp2646
tp2647
Rp2648
sS'basket'
p2649
g2
((lp2650
(ilocalization
box
p2651
(dp2652
g10
F1586.9463125000002
sg11
F1473.665625
sg12
F1142.9009375
sg13
F1803.5375625000001
sg14
F1.8319230476938637
sba(ilocalization
box
p2653
(dp2654
g10
F983.775
sg11
F958.627
sg12
F899.948
sg13
F1045.519
sg14
F0.3686159363034188
sba(ilocalization
box
p2655
(dp2656
g10
F66.845
sg11
F906.856
sg12
F824.266
sg13
F108.347
sg14
F0.41436833609224244
sba(ilocalization
box
p2657
(dp2658
g10
F1466.628
sg11
F307.583
sg12
F188.075
sg13
F1619.482
sg14
F0.3745612267757298
sba(ilocalization
box
p2659
(dp2660
g10
F297.479
sg11
F540.341
sg12
F403.562
sg13
F365.93
sg14
F0.369353905899632
sbatp2661
Rp2662
s.